
ctarget:     file format elf64-x86-64


Disassembly of section .init:

0000000000400d68 <_init>:
  400d68:	48 83 ec 08          	sub    $0x8,%rsp
  400d6c:	48 8b 05 85 42 20 00 	mov    0x204285(%rip),%rax        # 604ff8 <_DYNAMIC+0x1d0>
  400d73:	48 85 c0             	test   %rax,%rax
  400d76:	74 05                	je     400d7d <_init+0x15>
  400d78:	e8 83 02 00 00       	callq  401000 <socket@plt+0x10>
  400d7d:	48 83 c4 08          	add    $0x8,%rsp
  400d81:	c3                   	retq   

Disassembly of section .plt:

0000000000400d90 <putchar@plt-0x10>:
  400d90:	ff 35 72 42 20 00    	pushq  0x204272(%rip)        # 605008 <_GLOBAL_OFFSET_TABLE_+0x8>
  400d96:	ff 25 74 42 20 00    	jmpq   *0x204274(%rip)        # 605010 <_GLOBAL_OFFSET_TABLE_+0x10>
  400d9c:	0f 1f 40 00          	nopl   0x0(%rax)

0000000000400da0 <putchar@plt>:
  400da0:	ff 25 72 42 20 00    	jmpq   *0x204272(%rip)        # 605018 <_GLOBAL_OFFSET_TABLE_+0x18>
  400da6:	68 00 00 00 00       	pushq  $0x0
  400dab:	e9 e0 ff ff ff       	jmpq   400d90 <_init+0x28>

0000000000400db0 <strcasecmp@plt>:
  400db0:	ff 25 6a 42 20 00    	jmpq   *0x20426a(%rip)        # 605020 <_GLOBAL_OFFSET_TABLE_+0x20>
  400db6:	68 01 00 00 00       	pushq  $0x1
  400dbb:	e9 d0 ff ff ff       	jmpq   400d90 <_init+0x28>

0000000000400dc0 <__errno_location@plt>:
  400dc0:	ff 25 62 42 20 00    	jmpq   *0x204262(%rip)        # 605028 <_GLOBAL_OFFSET_TABLE_+0x28>
  400dc6:	68 02 00 00 00       	pushq  $0x2
  400dcb:	e9 c0 ff ff ff       	jmpq   400d90 <_init+0x28>

0000000000400dd0 <srandom@plt>:
  400dd0:	ff 25 5a 42 20 00    	jmpq   *0x20425a(%rip)        # 605030 <_GLOBAL_OFFSET_TABLE_+0x30>
  400dd6:	68 03 00 00 00       	pushq  $0x3
  400ddb:	e9 b0 ff ff ff       	jmpq   400d90 <_init+0x28>

0000000000400de0 <strncmp@plt>:
  400de0:	ff 25 52 42 20 00    	jmpq   *0x204252(%rip)        # 605038 <_GLOBAL_OFFSET_TABLE_+0x38>
  400de6:	68 04 00 00 00       	pushq  $0x4
  400deb:	e9 a0 ff ff ff       	jmpq   400d90 <_init+0x28>

0000000000400df0 <strcpy@plt>:
  400df0:	ff 25 4a 42 20 00    	jmpq   *0x20424a(%rip)        # 605040 <_GLOBAL_OFFSET_TABLE_+0x40>
  400df6:	68 05 00 00 00       	pushq  $0x5
  400dfb:	e9 90 ff ff ff       	jmpq   400d90 <_init+0x28>

0000000000400e00 <puts@plt>:
  400e00:	ff 25 42 42 20 00    	jmpq   *0x204242(%rip)        # 605048 <_GLOBAL_OFFSET_TABLE_+0x48>
  400e06:	68 06 00 00 00       	pushq  $0x6
  400e0b:	e9 80 ff ff ff       	jmpq   400d90 <_init+0x28>

0000000000400e10 <write@plt>:
  400e10:	ff 25 3a 42 20 00    	jmpq   *0x20423a(%rip)        # 605050 <_GLOBAL_OFFSET_TABLE_+0x50>
  400e16:	68 07 00 00 00       	pushq  $0x7
  400e1b:	e9 70 ff ff ff       	jmpq   400d90 <_init+0x28>

0000000000400e20 <__stack_chk_fail@plt>:
  400e20:	ff 25 32 42 20 00    	jmpq   *0x204232(%rip)        # 605058 <_GLOBAL_OFFSET_TABLE_+0x58>
  400e26:	68 08 00 00 00       	pushq  $0x8
  400e2b:	e9 60 ff ff ff       	jmpq   400d90 <_init+0x28>

0000000000400e30 <mmap@plt>:
  400e30:	ff 25 2a 42 20 00    	jmpq   *0x20422a(%rip)        # 605060 <_GLOBAL_OFFSET_TABLE_+0x60>
  400e36:	68 09 00 00 00       	pushq  $0x9
  400e3b:	e9 50 ff ff ff       	jmpq   400d90 <_init+0x28>

0000000000400e40 <memset@plt>:
  400e40:	ff 25 22 42 20 00    	jmpq   *0x204222(%rip)        # 605068 <_GLOBAL_OFFSET_TABLE_+0x68>
  400e46:	68 0a 00 00 00       	pushq  $0xa
  400e4b:	e9 40 ff ff ff       	jmpq   400d90 <_init+0x28>

0000000000400e50 <alarm@plt>:
  400e50:	ff 25 1a 42 20 00    	jmpq   *0x20421a(%rip)        # 605070 <_GLOBAL_OFFSET_TABLE_+0x70>
  400e56:	68 0b 00 00 00       	pushq  $0xb
  400e5b:	e9 30 ff ff ff       	jmpq   400d90 <_init+0x28>

0000000000400e60 <close@plt>:
  400e60:	ff 25 12 42 20 00    	jmpq   *0x204212(%rip)        # 605078 <_GLOBAL_OFFSET_TABLE_+0x78>
  400e66:	68 0c 00 00 00       	pushq  $0xc
  400e6b:	e9 20 ff ff ff       	jmpq   400d90 <_init+0x28>

0000000000400e70 <read@plt>:
  400e70:	ff 25 0a 42 20 00    	jmpq   *0x20420a(%rip)        # 605080 <_GLOBAL_OFFSET_TABLE_+0x80>
  400e76:	68 0d 00 00 00       	pushq  $0xd
  400e7b:	e9 10 ff ff ff       	jmpq   400d90 <_init+0x28>

0000000000400e80 <__libc_start_main@plt>:
  400e80:	ff 25 02 42 20 00    	jmpq   *0x204202(%rip)        # 605088 <_GLOBAL_OFFSET_TABLE_+0x88>
  400e86:	68 0e 00 00 00       	pushq  $0xe
  400e8b:	e9 00 ff ff ff       	jmpq   400d90 <_init+0x28>

0000000000400e90 <srand@plt>:
  400e90:	ff 25 fa 41 20 00    	jmpq   *0x2041fa(%rip)        # 605090 <_GLOBAL_OFFSET_TABLE_+0x90>
  400e96:	68 0f 00 00 00       	pushq  $0xf
  400e9b:	e9 f0 fe ff ff       	jmpq   400d90 <_init+0x28>

0000000000400ea0 <signal@plt>:
  400ea0:	ff 25 f2 41 20 00    	jmpq   *0x2041f2(%rip)        # 605098 <_GLOBAL_OFFSET_TABLE_+0x98>
  400ea6:	68 10 00 00 00       	pushq  $0x10
  400eab:	e9 e0 fe ff ff       	jmpq   400d90 <_init+0x28>

0000000000400eb0 <gethostbyname@plt>:
  400eb0:	ff 25 ea 41 20 00    	jmpq   *0x2041ea(%rip)        # 6050a0 <_GLOBAL_OFFSET_TABLE_+0xa0>
  400eb6:	68 11 00 00 00       	pushq  $0x11
  400ebb:	e9 d0 fe ff ff       	jmpq   400d90 <_init+0x28>

0000000000400ec0 <__memmove_chk@plt>:
  400ec0:	ff 25 e2 41 20 00    	jmpq   *0x2041e2(%rip)        # 6050a8 <_GLOBAL_OFFSET_TABLE_+0xa8>
  400ec6:	68 12 00 00 00       	pushq  $0x12
  400ecb:	e9 c0 fe ff ff       	jmpq   400d90 <_init+0x28>

0000000000400ed0 <strtol@plt>:
  400ed0:	ff 25 da 41 20 00    	jmpq   *0x2041da(%rip)        # 6050b0 <_GLOBAL_OFFSET_TABLE_+0xb0>
  400ed6:	68 13 00 00 00       	pushq  $0x13
  400edb:	e9 b0 fe ff ff       	jmpq   400d90 <_init+0x28>

0000000000400ee0 <memcpy@plt>:
  400ee0:	ff 25 d2 41 20 00    	jmpq   *0x2041d2(%rip)        # 6050b8 <_GLOBAL_OFFSET_TABLE_+0xb8>
  400ee6:	68 14 00 00 00       	pushq  $0x14
  400eeb:	e9 a0 fe ff ff       	jmpq   400d90 <_init+0x28>

0000000000400ef0 <time@plt>:
  400ef0:	ff 25 ca 41 20 00    	jmpq   *0x2041ca(%rip)        # 6050c0 <_GLOBAL_OFFSET_TABLE_+0xc0>
  400ef6:	68 15 00 00 00       	pushq  $0x15
  400efb:	e9 90 fe ff ff       	jmpq   400d90 <_init+0x28>

0000000000400f00 <random@plt>:
  400f00:	ff 25 c2 41 20 00    	jmpq   *0x2041c2(%rip)        # 6050c8 <_GLOBAL_OFFSET_TABLE_+0xc8>
  400f06:	68 16 00 00 00       	pushq  $0x16
  400f0b:	e9 80 fe ff ff       	jmpq   400d90 <_init+0x28>

0000000000400f10 <fflush@plt>:
  400f10:	ff 25 ba 41 20 00    	jmpq   *0x2041ba(%rip)        # 6050d0 <_GLOBAL_OFFSET_TABLE_+0xd0>
  400f16:	68 17 00 00 00       	pushq  $0x17
  400f1b:	e9 70 fe ff ff       	jmpq   400d90 <_init+0x28>

0000000000400f20 <_IO_getc@plt>:
  400f20:	ff 25 b2 41 20 00    	jmpq   *0x2041b2(%rip)        # 6050d8 <_GLOBAL_OFFSET_TABLE_+0xd8>
  400f26:	68 18 00 00 00       	pushq  $0x18
  400f2b:	e9 60 fe ff ff       	jmpq   400d90 <_init+0x28>

0000000000400f30 <__isoc99_sscanf@plt>:
  400f30:	ff 25 aa 41 20 00    	jmpq   *0x2041aa(%rip)        # 6050e0 <_GLOBAL_OFFSET_TABLE_+0xe0>
  400f36:	68 19 00 00 00       	pushq  $0x19
  400f3b:	e9 50 fe ff ff       	jmpq   400d90 <_init+0x28>

0000000000400f40 <munmap@plt>:
  400f40:	ff 25 a2 41 20 00    	jmpq   *0x2041a2(%rip)        # 6050e8 <_GLOBAL_OFFSET_TABLE_+0xe8>
  400f46:	68 1a 00 00 00       	pushq  $0x1a
  400f4b:	e9 40 fe ff ff       	jmpq   400d90 <_init+0x28>

0000000000400f50 <__printf_chk@plt>:
  400f50:	ff 25 9a 41 20 00    	jmpq   *0x20419a(%rip)        # 6050f0 <_GLOBAL_OFFSET_TABLE_+0xf0>
  400f56:	68 1b 00 00 00       	pushq  $0x1b
  400f5b:	e9 30 fe ff ff       	jmpq   400d90 <_init+0x28>

0000000000400f60 <fopen@plt>:
  400f60:	ff 25 92 41 20 00    	jmpq   *0x204192(%rip)        # 6050f8 <_GLOBAL_OFFSET_TABLE_+0xf8>
  400f66:	68 1c 00 00 00       	pushq  $0x1c
  400f6b:	e9 20 fe ff ff       	jmpq   400d90 <_init+0x28>

0000000000400f70 <getopt@plt>:
  400f70:	ff 25 8a 41 20 00    	jmpq   *0x20418a(%rip)        # 605100 <_GLOBAL_OFFSET_TABLE_+0x100>
  400f76:	68 1d 00 00 00       	pushq  $0x1d
  400f7b:	e9 10 fe ff ff       	jmpq   400d90 <_init+0x28>

0000000000400f80 <strtoul@plt>:
  400f80:	ff 25 82 41 20 00    	jmpq   *0x204182(%rip)        # 605108 <_GLOBAL_OFFSET_TABLE_+0x108>
  400f86:	68 1e 00 00 00       	pushq  $0x1e
  400f8b:	e9 00 fe ff ff       	jmpq   400d90 <_init+0x28>

0000000000400f90 <gethostname@plt>:
  400f90:	ff 25 7a 41 20 00    	jmpq   *0x20417a(%rip)        # 605110 <_GLOBAL_OFFSET_TABLE_+0x110>
  400f96:	68 1f 00 00 00       	pushq  $0x1f
  400f9b:	e9 f0 fd ff ff       	jmpq   400d90 <_init+0x28>

0000000000400fa0 <exit@plt>:
  400fa0:	ff 25 72 41 20 00    	jmpq   *0x204172(%rip)        # 605118 <_GLOBAL_OFFSET_TABLE_+0x118>
  400fa6:	68 20 00 00 00       	pushq  $0x20
  400fab:	e9 e0 fd ff ff       	jmpq   400d90 <_init+0x28>

0000000000400fb0 <connect@plt>:
  400fb0:	ff 25 6a 41 20 00    	jmpq   *0x20416a(%rip)        # 605120 <_GLOBAL_OFFSET_TABLE_+0x120>
  400fb6:	68 21 00 00 00       	pushq  $0x21
  400fbb:	e9 d0 fd ff ff       	jmpq   400d90 <_init+0x28>

0000000000400fc0 <__fprintf_chk@plt>:
  400fc0:	ff 25 62 41 20 00    	jmpq   *0x204162(%rip)        # 605128 <_GLOBAL_OFFSET_TABLE_+0x128>
  400fc6:	68 22 00 00 00       	pushq  $0x22
  400fcb:	e9 c0 fd ff ff       	jmpq   400d90 <_init+0x28>

0000000000400fd0 <rand@plt>:
  400fd0:	ff 25 5a 41 20 00    	jmpq   *0x20415a(%rip)        # 605130 <_GLOBAL_OFFSET_TABLE_+0x130>
  400fd6:	68 23 00 00 00       	pushq  $0x23
  400fdb:	e9 b0 fd ff ff       	jmpq   400d90 <_init+0x28>

0000000000400fe0 <__sprintf_chk@plt>:
  400fe0:	ff 25 52 41 20 00    	jmpq   *0x204152(%rip)        # 605138 <_GLOBAL_OFFSET_TABLE_+0x138>
  400fe6:	68 24 00 00 00       	pushq  $0x24
  400feb:	e9 a0 fd ff ff       	jmpq   400d90 <_init+0x28>

0000000000400ff0 <socket@plt>:
  400ff0:	ff 25 4a 41 20 00    	jmpq   *0x20414a(%rip)        # 605140 <_GLOBAL_OFFSET_TABLE_+0x140>
  400ff6:	68 25 00 00 00       	pushq  $0x25
  400ffb:	e9 90 fd ff ff       	jmpq   400d90 <_init+0x28>

Disassembly of section .plt.got:

0000000000401000 <.plt.got>:
  401000:	ff 25 f2 3f 20 00    	jmpq   *0x203ff2(%rip)        # 604ff8 <_DYNAMIC+0x1d0>
  401006:	66 90                	xchg   %ax,%ax

Disassembly of section .text:

0000000000401010 <_start>:
  401010:	31 ed                	xor    %ebp,%ebp
  401012:	49 89 d1             	mov    %rdx,%r9
  401015:	5e                   	pop    %rsi
  401016:	48 89 e2             	mov    %rsp,%rdx
  401019:	48 83 e4 f0          	and    $0xfffffffffffffff0,%rsp
  40101d:	50                   	push   %rax
  40101e:	54                   	push   %rsp
  40101f:	49 c7 c0 20 32 40 00 	mov    $0x403220,%r8
  401026:	48 c7 c1 b0 31 40 00 	mov    $0x4031b0,%rcx
  40102d:	48 c7 c7 15 13 40 00 	mov    $0x401315,%rdi
  401034:	e8 47 fe ff ff       	callq  400e80 <__libc_start_main@plt>
  401039:	f4                   	hlt    
  40103a:	66 0f 1f 44 00 00    	nopw   0x0(%rax,%rax,1)

0000000000401040 <deregister_tm_clones>:
  401040:	b8 d7 54 60 00       	mov    $0x6054d7,%eax
  401045:	55                   	push   %rbp
  401046:	48 2d d0 54 60 00    	sub    $0x6054d0,%rax
  40104c:	48 83 f8 0e          	cmp    $0xe,%rax
  401050:	48 89 e5             	mov    %rsp,%rbp
  401053:	76 1b                	jbe    401070 <deregister_tm_clones+0x30>
  401055:	b8 00 00 00 00       	mov    $0x0,%eax
  40105a:	48 85 c0             	test   %rax,%rax
  40105d:	74 11                	je     401070 <deregister_tm_clones+0x30>
  40105f:	5d                   	pop    %rbp
  401060:	bf d0 54 60 00       	mov    $0x6054d0,%edi
  401065:	ff e0                	jmpq   *%rax
  401067:	66 0f 1f 84 00 00 00 	nopw   0x0(%rax,%rax,1)
  40106e:	00 00 
  401070:	5d                   	pop    %rbp
  401071:	c3                   	retq   
  401072:	0f 1f 40 00          	nopl   0x0(%rax)
  401076:	66 2e 0f 1f 84 00 00 	nopw   %cs:0x0(%rax,%rax,1)
  40107d:	00 00 00 

0000000000401080 <register_tm_clones>:
  401080:	be d0 54 60 00       	mov    $0x6054d0,%esi
  401085:	55                   	push   %rbp
  401086:	48 81 ee d0 54 60 00 	sub    $0x6054d0,%rsi
  40108d:	48 c1 fe 03          	sar    $0x3,%rsi
  401091:	48 89 e5             	mov    %rsp,%rbp
  401094:	48 89 f0             	mov    %rsi,%rax
  401097:	48 c1 e8 3f          	shr    $0x3f,%rax
  40109b:	48 01 c6             	add    %rax,%rsi
  40109e:	48 d1 fe             	sar    %rsi
  4010a1:	74 15                	je     4010b8 <register_tm_clones+0x38>
  4010a3:	b8 00 00 00 00       	mov    $0x0,%eax
  4010a8:	48 85 c0             	test   %rax,%rax
  4010ab:	74 0b                	je     4010b8 <register_tm_clones+0x38>
  4010ad:	5d                   	pop    %rbp
  4010ae:	bf d0 54 60 00       	mov    $0x6054d0,%edi
  4010b3:	ff e0                	jmpq   *%rax
  4010b5:	0f 1f 00             	nopl   (%rax)
  4010b8:	5d                   	pop    %rbp
  4010b9:	c3                   	retq   
  4010ba:	66 0f 1f 44 00 00    	nopw   0x0(%rax,%rax,1)

00000000004010c0 <__do_global_dtors_aux>:
  4010c0:	80 3d 41 44 20 00 00 	cmpb   $0x0,0x204441(%rip)        # 605508 <completed.7585>
  4010c7:	75 11                	jne    4010da <__do_global_dtors_aux+0x1a>
  4010c9:	55                   	push   %rbp
  4010ca:	48 89 e5             	mov    %rsp,%rbp
  4010cd:	e8 6e ff ff ff       	callq  401040 <deregister_tm_clones>
  4010d2:	5d                   	pop    %rbp
  4010d3:	c6 05 2e 44 20 00 01 	movb   $0x1,0x20442e(%rip)        # 605508 <completed.7585>
  4010da:	f3 c3                	repz retq 
  4010dc:	0f 1f 40 00          	nopl   0x0(%rax)

00000000004010e0 <frame_dummy>:
  4010e0:	bf 20 4e 60 00       	mov    $0x604e20,%edi
  4010e5:	48 83 3f 00          	cmpq   $0x0,(%rdi)
  4010e9:	75 05                	jne    4010f0 <frame_dummy+0x10>
  4010eb:	eb 93                	jmp    401080 <register_tm_clones>
  4010ed:	0f 1f 00             	nopl   (%rax)
  4010f0:	b8 00 00 00 00       	mov    $0x0,%eax
  4010f5:	48 85 c0             	test   %rax,%rax
  4010f8:	74 f1                	je     4010eb <frame_dummy+0xb>
  4010fa:	55                   	push   %rbp
  4010fb:	48 89 e5             	mov    %rsp,%rbp
  4010fe:	ff d0                	callq  *%rax
  401100:	5d                   	pop    %rbp
  401101:	e9 7a ff ff ff       	jmpq   401080 <register_tm_clones>

0000000000401106 <usage>:
  401106:	48 83 ec 08          	sub    $0x8,%rsp
  40110a:	48 89 fa             	mov    %rdi,%rdx
  40110d:	83 3d 34 44 20 00 00 	cmpl   $0x0,0x204434(%rip)        # 605548 <is_checker>
  401114:	74 3e                	je     401154 <usage+0x4e>
  401116:	be 38 32 40 00       	mov    $0x403238,%esi
  40111b:	bf 01 00 00 00       	mov    $0x1,%edi
  401120:	b8 00 00 00 00       	mov    $0x0,%eax
  401125:	e8 26 fe ff ff       	callq  400f50 <__printf_chk@plt>
  40112a:	bf 70 32 40 00       	mov    $0x403270,%edi
  40112f:	e8 cc fc ff ff       	callq  400e00 <puts@plt>
  401134:	bf e8 33 40 00       	mov    $0x4033e8,%edi
  401139:	e8 c2 fc ff ff       	callq  400e00 <puts@plt>
  40113e:	bf 98 32 40 00       	mov    $0x403298,%edi
  401143:	e8 b8 fc ff ff       	callq  400e00 <puts@plt>
  401148:	bf 02 34 40 00       	mov    $0x403402,%edi
  40114d:	e8 ae fc ff ff       	callq  400e00 <puts@plt>
  401152:	eb 32                	jmp    401186 <usage+0x80>
  401154:	be 1e 34 40 00       	mov    $0x40341e,%esi
  401159:	bf 01 00 00 00       	mov    $0x1,%edi
  40115e:	b8 00 00 00 00       	mov    $0x0,%eax
  401163:	e8 e8 fd ff ff       	callq  400f50 <__printf_chk@plt>
  401168:	bf c0 32 40 00       	mov    $0x4032c0,%edi
  40116d:	e8 8e fc ff ff       	callq  400e00 <puts@plt>
  401172:	bf e8 32 40 00       	mov    $0x4032e8,%edi
  401177:	e8 84 fc ff ff       	callq  400e00 <puts@plt>
  40117c:	bf 3c 34 40 00       	mov    $0x40343c,%edi
  401181:	e8 7a fc ff ff       	callq  400e00 <puts@plt>
  401186:	bf 00 00 00 00       	mov    $0x0,%edi
  40118b:	e8 10 fe ff ff       	callq  400fa0 <exit@plt>

0000000000401190 <initialize_target>:
  401190:	55                   	push   %rbp
  401191:	53                   	push   %rbx
  401192:	48 81 ec 18 21 00 00 	sub    $0x2118,%rsp
  401199:	89 f5                	mov    %esi,%ebp
  40119b:	64 48 8b 04 25 28 00 	mov    %fs:0x28,%rax
  4011a2:	00 00 
  4011a4:	48 89 84 24 08 21 00 	mov    %rax,0x2108(%rsp)
  4011ab:	00 
  4011ac:	31 c0                	xor    %eax,%eax
  4011ae:	89 3d 84 43 20 00    	mov    %edi,0x204384(%rip)        # 605538 <check_level>
  4011b4:	8b 3d ce 3f 20 00    	mov    0x203fce(%rip),%edi        # 605188 <target_id>
  4011ba:	e8 c4 1f 00 00       	callq  403183 <gencookie>
  4011bf:	89 05 7f 43 20 00    	mov    %eax,0x20437f(%rip)        # 605544 <cookie>
  4011c5:	89 c7                	mov    %eax,%edi
  4011c7:	e8 b7 1f 00 00       	callq  403183 <gencookie>
  4011cc:	89 05 6e 43 20 00    	mov    %eax,0x20436e(%rip)        # 605540 <authkey>
  4011d2:	8b 05 b0 3f 20 00    	mov    0x203fb0(%rip),%eax        # 605188 <target_id>
  4011d8:	8d 78 01             	lea    0x1(%rax),%edi
  4011db:	e8 f0 fb ff ff       	callq  400dd0 <srandom@plt>
  4011e0:	e8 1b fd ff ff       	callq  400f00 <random@plt>
  4011e5:	89 c7                	mov    %eax,%edi
  4011e7:	e8 03 03 00 00       	callq  4014ef <scramble>
  4011ec:	89 c3                	mov    %eax,%ebx
  4011ee:	85 ed                	test   %ebp,%ebp
  4011f0:	74 18                	je     40120a <initialize_target+0x7a>
  4011f2:	bf 00 00 00 00       	mov    $0x0,%edi
  4011f7:	e8 f4 fc ff ff       	callq  400ef0 <time@plt>
  4011fc:	89 c7                	mov    %eax,%edi
  4011fe:	e8 cd fb ff ff       	callq  400dd0 <srandom@plt>
  401203:	e8 f8 fc ff ff       	callq  400f00 <random@plt>
  401208:	eb 05                	jmp    40120f <initialize_target+0x7f>
  40120a:	b8 00 00 00 00       	mov    $0x0,%eax
  40120f:	01 c3                	add    %eax,%ebx
  401211:	0f b7 db             	movzwl %bx,%ebx
  401214:	8d 04 dd 00 01 00 00 	lea    0x100(,%rbx,8),%eax
  40121b:	89 c0                	mov    %eax,%eax
  40121d:	48 89 05 9c 42 20 00 	mov    %rax,0x20429c(%rip)        # 6054c0 <buf_offset>
  401224:	c6 05 3d 4f 20 00 63 	movb   $0x63,0x204f3d(%rip)        # 606168 <target_prefix>
  40122b:	83 3d 96 42 20 00 00 	cmpl   $0x0,0x204296(%rip)        # 6054c8 <notify>
  401232:	0f 84 bb 00 00 00    	je     4012f3 <initialize_target+0x163>
  401238:	83 3d 09 43 20 00 00 	cmpl   $0x0,0x204309(%rip)        # 605548 <is_checker>
  40123f:	0f 85 ae 00 00 00    	jne    4012f3 <initialize_target+0x163>
  401245:	be 00 01 00 00       	mov    $0x100,%esi
  40124a:	48 89 e7             	mov    %rsp,%rdi
  40124d:	e8 3e fd ff ff       	callq  400f90 <gethostname@plt>
  401252:	85 c0                	test   %eax,%eax
  401254:	74 25                	je     40127b <initialize_target+0xeb>
  401256:	bf 18 33 40 00       	mov    $0x403318,%edi
  40125b:	e8 a0 fb ff ff       	callq  400e00 <puts@plt>
  401260:	bf 08 00 00 00       	mov    $0x8,%edi
  401265:	e8 36 fd ff ff       	callq  400fa0 <exit@plt>
  40126a:	48 89 e6             	mov    %rsp,%rsi
  40126d:	e8 3e fb ff ff       	callq  400db0 <strcasecmp@plt>
  401272:	85 c0                	test   %eax,%eax
  401274:	74 21                	je     401297 <initialize_target+0x107>
  401276:	83 c3 01             	add    $0x1,%ebx
  401279:	eb 05                	jmp    401280 <initialize_target+0xf0>
  40127b:	bb 00 00 00 00       	mov    $0x0,%ebx
  401280:	48 63 c3             	movslq %ebx,%rax
  401283:	48 8b 3c c5 a0 51 60 	mov    0x6051a0(,%rax,8),%rdi
  40128a:	00 
  40128b:	48 85 ff             	test   %rdi,%rdi
  40128e:	75 da                	jne    40126a <initialize_target+0xda>
  401290:	b8 00 00 00 00       	mov    $0x0,%eax
  401295:	eb 05                	jmp    40129c <initialize_target+0x10c>
  401297:	b8 01 00 00 00       	mov    $0x1,%eax
  40129c:	85 c0                	test   %eax,%eax
  40129e:	75 1c                	jne    4012bc <initialize_target+0x12c>
  4012a0:	48 89 e2             	mov    %rsp,%rdx
  4012a3:	be 50 33 40 00       	mov    $0x403350,%esi
  4012a8:	bf 01 00 00 00       	mov    $0x1,%edi
  4012ad:	e8 9e fc ff ff       	callq  400f50 <__printf_chk@plt>
  4012b2:	bf 08 00 00 00       	mov    $0x8,%edi
  4012b7:	e8 e4 fc ff ff       	callq  400fa0 <exit@plt>
  4012bc:	48 8d bc 24 00 01 00 	lea    0x100(%rsp),%rdi
  4012c3:	00 
  4012c4:	e8 24 1c 00 00       	callq  402eed <init_driver>
  4012c9:	85 c0                	test   %eax,%eax
  4012cb:	79 26                	jns    4012f3 <initialize_target+0x163>
  4012cd:	48 8d 94 24 00 01 00 	lea    0x100(%rsp),%rdx
  4012d4:	00 
  4012d5:	be 90 33 40 00       	mov    $0x403390,%esi
  4012da:	bf 01 00 00 00       	mov    $0x1,%edi
  4012df:	b8 00 00 00 00       	mov    $0x0,%eax
  4012e4:	e8 67 fc ff ff       	callq  400f50 <__printf_chk@plt>
  4012e9:	bf 08 00 00 00       	mov    $0x8,%edi
  4012ee:	e8 ad fc ff ff       	callq  400fa0 <exit@plt>
  4012f3:	48 8b 84 24 08 21 00 	mov    0x2108(%rsp),%rax
  4012fa:	00 
  4012fb:	64 48 33 04 25 28 00 	xor    %fs:0x28,%rax
  401302:	00 00 
  401304:	74 05                	je     40130b <initialize_target+0x17b>
  401306:	e8 15 fb ff ff       	callq  400e20 <__stack_chk_fail@plt>
  40130b:	48 81 c4 18 21 00 00 	add    $0x2118,%rsp
  401312:	5b                   	pop    %rbx
  401313:	5d                   	pop    %rbp
  401314:	c3                   	retq   

0000000000401315 <main>:
  401315:	41 56                	push   %r14
  401317:	41 55                	push   %r13
  401319:	41 54                	push   %r12
  40131b:	55                   	push   %rbp
  40131c:	53                   	push   %rbx
  40131d:	41 89 fc             	mov    %edi,%r12d
  401320:	48 89 f3             	mov    %rsi,%rbx
  401323:	be 28 22 40 00       	mov    $0x402228,%esi
  401328:	bf 0b 00 00 00       	mov    $0xb,%edi
  40132d:	e8 6e fb ff ff       	callq  400ea0 <signal@plt>
  401332:	be da 21 40 00       	mov    $0x4021da,%esi
  401337:	bf 07 00 00 00       	mov    $0x7,%edi
  40133c:	e8 5f fb ff ff       	callq  400ea0 <signal@plt>
  401341:	be 76 22 40 00       	mov    $0x402276,%esi
  401346:	bf 04 00 00 00       	mov    $0x4,%edi
  40134b:	e8 50 fb ff ff       	callq  400ea0 <signal@plt>
  401350:	83 3d f1 41 20 00 00 	cmpl   $0x0,0x2041f1(%rip)        # 605548 <is_checker>
  401357:	74 20                	je     401379 <main+0x64>
  401359:	be c4 22 40 00       	mov    $0x4022c4,%esi
  40135e:	bf 0e 00 00 00       	mov    $0xe,%edi
  401363:	e8 38 fb ff ff       	callq  400ea0 <signal@plt>
  401368:	bf 05 00 00 00       	mov    $0x5,%edi
  40136d:	e8 de fa ff ff       	callq  400e50 <alarm@plt>
  401372:	bd 5a 34 40 00       	mov    $0x40345a,%ebp
  401377:	eb 05                	jmp    40137e <main+0x69>
  401379:	bd 55 34 40 00       	mov    $0x403455,%ebp
  40137e:	48 8b 05 6b 41 20 00 	mov    0x20416b(%rip),%rax        # 6054f0 <stdin@@GLIBC_2.2.5>
  401385:	48 89 05 a4 41 20 00 	mov    %rax,0x2041a4(%rip)        # 605530 <infile>
  40138c:	41 bd 00 00 00 00    	mov    $0x0,%r13d
  401392:	41 be 00 00 00 00    	mov    $0x0,%r14d
  401398:	e9 c6 00 00 00       	jmpq   401463 <main+0x14e>
  40139d:	83 e8 61             	sub    $0x61,%eax
  4013a0:	3c 10                	cmp    $0x10,%al
  4013a2:	0f 87 9c 00 00 00    	ja     401444 <main+0x12f>
  4013a8:	0f b6 c0             	movzbl %al,%eax
  4013ab:	ff 24 c5 a0 34 40 00 	jmpq   *0x4034a0(,%rax,8)
  4013b2:	48 8b 3b             	mov    (%rbx),%rdi
  4013b5:	e8 4c fd ff ff       	callq  401106 <usage>
  4013ba:	be ad 3a 40 00       	mov    $0x403aad,%esi
  4013bf:	48 8b 3d 32 41 20 00 	mov    0x204132(%rip),%rdi        # 6054f8 <optarg@@GLIBC_2.2.5>
  4013c6:	e8 95 fb ff ff       	callq  400f60 <fopen@plt>
  4013cb:	48 89 05 5e 41 20 00 	mov    %rax,0x20415e(%rip)        # 605530 <infile>
  4013d2:	48 85 c0             	test   %rax,%rax
  4013d5:	0f 85 88 00 00 00    	jne    401463 <main+0x14e>
  4013db:	48 8b 0d 16 41 20 00 	mov    0x204116(%rip),%rcx        # 6054f8 <optarg@@GLIBC_2.2.5>
  4013e2:	ba 62 34 40 00       	mov    $0x403462,%edx
  4013e7:	be 01 00 00 00       	mov    $0x1,%esi
  4013ec:	48 8b 3d 0d 41 20 00 	mov    0x20410d(%rip),%rdi        # 605500 <stderr@@GLIBC_2.2.5>
  4013f3:	e8 c8 fb ff ff       	callq  400fc0 <__fprintf_chk@plt>
  4013f8:	b8 01 00 00 00       	mov    $0x1,%eax
  4013fd:	e9 e4 00 00 00       	jmpq   4014e6 <main+0x1d1>
  401402:	ba 10 00 00 00       	mov    $0x10,%edx
  401407:	be 00 00 00 00       	mov    $0x0,%esi
  40140c:	48 8b 3d e5 40 20 00 	mov    0x2040e5(%rip),%rdi        # 6054f8 <optarg@@GLIBC_2.2.5>
  401413:	e8 68 fb ff ff       	callq  400f80 <strtoul@plt>
  401418:	41 89 c6             	mov    %eax,%r14d
  40141b:	eb 46                	jmp    401463 <main+0x14e>
  40141d:	ba 0a 00 00 00       	mov    $0xa,%edx
  401422:	be 00 00 00 00       	mov    $0x0,%esi
  401427:	48 8b 3d ca 40 20 00 	mov    0x2040ca(%rip),%rdi        # 6054f8 <optarg@@GLIBC_2.2.5>
  40142e:	e8 9d fa ff ff       	callq  400ed0 <strtol@plt>
  401433:	41 89 c5             	mov    %eax,%r13d
  401436:	eb 2b                	jmp    401463 <main+0x14e>
  401438:	c7 05 86 40 20 00 00 	movl   $0x0,0x204086(%rip)        # 6054c8 <notify>
  40143f:	00 00 00 
  401442:	eb 1f                	jmp    401463 <main+0x14e>
  401444:	0f be d2             	movsbl %dl,%edx
  401447:	be 7f 34 40 00       	mov    $0x40347f,%esi
  40144c:	bf 01 00 00 00       	mov    $0x1,%edi
  401451:	b8 00 00 00 00       	mov    $0x0,%eax
  401456:	e8 f5 fa ff ff       	callq  400f50 <__printf_chk@plt>
  40145b:	48 8b 3b             	mov    (%rbx),%rdi
  40145e:	e8 a3 fc ff ff       	callq  401106 <usage>
  401463:	48 89 ea             	mov    %rbp,%rdx
  401466:	48 89 de             	mov    %rbx,%rsi
  401469:	44 89 e7             	mov    %r12d,%edi
  40146c:	e8 ff fa ff ff       	callq  400f70 <getopt@plt>
  401471:	89 c2                	mov    %eax,%edx
  401473:	3c ff                	cmp    $0xff,%al
  401475:	0f 85 22 ff ff ff    	jne    40139d <main+0x88>
  40147b:	be 00 00 00 00       	mov    $0x0,%esi
  401480:	44 89 ef             	mov    %r13d,%edi
  401483:	e8 08 fd ff ff       	callq  401190 <initialize_target>
  401488:	83 3d b9 40 20 00 00 	cmpl   $0x0,0x2040b9(%rip)        # 605548 <is_checker>
  40148f:	74 2a                	je     4014bb <main+0x1a6>
  401491:	44 3b 35 a8 40 20 00 	cmp    0x2040a8(%rip),%r14d        # 605540 <authkey>
  401498:	74 21                	je     4014bb <main+0x1a6>
  40149a:	44 89 f2             	mov    %r14d,%edx
  40149d:	be b8 33 40 00       	mov    $0x4033b8,%esi
  4014a2:	bf 01 00 00 00       	mov    $0x1,%edi
  4014a7:	b8 00 00 00 00       	mov    $0x0,%eax
  4014ac:	e8 9f fa ff ff       	callq  400f50 <__printf_chk@plt>
  4014b1:	b8 00 00 00 00       	mov    $0x0,%eax
  4014b6:	e8 c0 09 00 00       	callq  401e7b <check_fail>
  4014bb:	8b 15 83 40 20 00    	mov    0x204083(%rip),%edx        # 605544 <cookie>
  4014c1:	be 92 34 40 00       	mov    $0x403492,%esi
  4014c6:	bf 01 00 00 00       	mov    $0x1,%edi
  4014cb:	b8 00 00 00 00       	mov    $0x0,%eax
  4014d0:	e8 7b fa ff ff       	callq  400f50 <__printf_chk@plt>
  4014d5:	48 8b 3d e4 3f 20 00 	mov    0x203fe4(%rip),%rdi        # 6054c0 <buf_offset>
  4014dc:	e8 e3 0e 00 00       	callq  4023c4 <stable_launch>
  4014e1:	b8 00 00 00 00       	mov    $0x0,%eax
  4014e6:	5b                   	pop    %rbx
  4014e7:	5d                   	pop    %rbp
  4014e8:	41 5c                	pop    %r12
  4014ea:	41 5d                	pop    %r13
  4014ec:	41 5e                	pop    %r14
  4014ee:	c3                   	retq   

00000000004014ef <scramble>:
  4014ef:	48 83 ec 38          	sub    $0x38,%rsp
  4014f3:	64 48 8b 04 25 28 00 	mov    %fs:0x28,%rax
  4014fa:	00 00 
  4014fc:	48 89 44 24 28       	mov    %rax,0x28(%rsp)
  401501:	31 c0                	xor    %eax,%eax
  401503:	eb 10                	jmp    401515 <scramble+0x26>
  401505:	69 d0 07 87 00 00    	imul   $0x8707,%eax,%edx
  40150b:	01 fa                	add    %edi,%edx
  40150d:	89 c1                	mov    %eax,%ecx
  40150f:	89 14 8c             	mov    %edx,(%rsp,%rcx,4)
  401512:	83 c0 01             	add    $0x1,%eax
  401515:	83 f8 09             	cmp    $0x9,%eax
  401518:	76 eb                	jbe    401505 <scramble+0x16>
  40151a:	8b 44 24 14          	mov    0x14(%rsp),%eax
  40151e:	69 c0 6b ff 00 00    	imul   $0xff6b,%eax,%eax
  401524:	89 44 24 14          	mov    %eax,0x14(%rsp)
  401528:	8b 44 24 1c          	mov    0x1c(%rsp),%eax
  40152c:	69 c0 aa 68 00 00    	imul   $0x68aa,%eax,%eax
  401532:	89 44 24 1c          	mov    %eax,0x1c(%rsp)
  401536:	8b 44 24 14          	mov    0x14(%rsp),%eax
  40153a:	69 c0 70 bd 00 00    	imul   $0xbd70,%eax,%eax
  401540:	89 44 24 14          	mov    %eax,0x14(%rsp)
  401544:	8b 44 24 0c          	mov    0xc(%rsp),%eax
  401548:	69 c0 bb fe 00 00    	imul   $0xfebb,%eax,%eax
  40154e:	89 44 24 0c          	mov    %eax,0xc(%rsp)
  401552:	8b 44 24 08          	mov    0x8(%rsp),%eax
  401556:	69 c0 ba a5 00 00    	imul   $0xa5ba,%eax,%eax
  40155c:	89 44 24 08          	mov    %eax,0x8(%rsp)
  401560:	8b 44 24 08          	mov    0x8(%rsp),%eax
  401564:	69 c0 42 69 00 00    	imul   $0x6942,%eax,%eax
  40156a:	89 44 24 08          	mov    %eax,0x8(%rsp)
  40156e:	8b 44 24 24          	mov    0x24(%rsp),%eax
  401572:	69 c0 6b 3a 00 00    	imul   $0x3a6b,%eax,%eax
  401578:	89 44 24 24          	mov    %eax,0x24(%rsp)
  40157c:	8b 44 24 24          	mov    0x24(%rsp),%eax
  401580:	69 c0 6a 01 00 00    	imul   $0x16a,%eax,%eax
  401586:	89 44 24 24          	mov    %eax,0x24(%rsp)
  40158a:	8b 44 24 08          	mov    0x8(%rsp),%eax
  40158e:	69 c0 f6 9d 00 00    	imul   $0x9df6,%eax,%eax
  401594:	89 44 24 08          	mov    %eax,0x8(%rsp)
  401598:	8b 44 24 18          	mov    0x18(%rsp),%eax
  40159c:	69 c0 19 ba 00 00    	imul   $0xba19,%eax,%eax
  4015a2:	89 44 24 18          	mov    %eax,0x18(%rsp)
  4015a6:	8b 44 24 20          	mov    0x20(%rsp),%eax
  4015aa:	69 c0 cf 4e 00 00    	imul   $0x4ecf,%eax,%eax
  4015b0:	89 44 24 20          	mov    %eax,0x20(%rsp)
  4015b4:	8b 44 24 24          	mov    0x24(%rsp),%eax
  4015b8:	69 c0 23 85 00 00    	imul   $0x8523,%eax,%eax
  4015be:	89 44 24 24          	mov    %eax,0x24(%rsp)
  4015c2:	8b 44 24 0c          	mov    0xc(%rsp),%eax
  4015c6:	69 c0 db fb 00 00    	imul   $0xfbdb,%eax,%eax
  4015cc:	89 44 24 0c          	mov    %eax,0xc(%rsp)
  4015d0:	8b 44 24 10          	mov    0x10(%rsp),%eax
  4015d4:	69 c0 02 3a 00 00    	imul   $0x3a02,%eax,%eax
  4015da:	89 44 24 10          	mov    %eax,0x10(%rsp)
  4015de:	8b 44 24 18          	mov    0x18(%rsp),%eax
  4015e2:	69 c0 ba c8 00 00    	imul   $0xc8ba,%eax,%eax
  4015e8:	89 44 24 18          	mov    %eax,0x18(%rsp)
  4015ec:	8b 44 24 18          	mov    0x18(%rsp),%eax
  4015f0:	69 c0 ad 4c 00 00    	imul   $0x4cad,%eax,%eax
  4015f6:	89 44 24 18          	mov    %eax,0x18(%rsp)
  4015fa:	8b 44 24 18          	mov    0x18(%rsp),%eax
  4015fe:	69 c0 f7 07 00 00    	imul   $0x7f7,%eax,%eax
  401604:	89 44 24 18          	mov    %eax,0x18(%rsp)
  401608:	8b 44 24 24          	mov    0x24(%rsp),%eax
  40160c:	69 c0 a7 e1 00 00    	imul   $0xe1a7,%eax,%eax
  401612:	89 44 24 24          	mov    %eax,0x24(%rsp)
  401616:	8b 44 24 20          	mov    0x20(%rsp),%eax
  40161a:	69 c0 ff b2 00 00    	imul   $0xb2ff,%eax,%eax
  401620:	89 44 24 20          	mov    %eax,0x20(%rsp)
  401624:	8b 44 24 04          	mov    0x4(%rsp),%eax
  401628:	69 c0 b5 2a 00 00    	imul   $0x2ab5,%eax,%eax
  40162e:	89 44 24 04          	mov    %eax,0x4(%rsp)
  401632:	8b 44 24 0c          	mov    0xc(%rsp),%eax
  401636:	69 c0 5c 8c 00 00    	imul   $0x8c5c,%eax,%eax
  40163c:	89 44 24 0c          	mov    %eax,0xc(%rsp)
  401640:	8b 44 24 1c          	mov    0x1c(%rsp),%eax
  401644:	69 c0 a9 ea 00 00    	imul   $0xeaa9,%eax,%eax
  40164a:	89 44 24 1c          	mov    %eax,0x1c(%rsp)
  40164e:	8b 44 24 1c          	mov    0x1c(%rsp),%eax
  401652:	69 c0 24 33 00 00    	imul   $0x3324,%eax,%eax
  401658:	89 44 24 1c          	mov    %eax,0x1c(%rsp)
  40165c:	8b 44 24 10          	mov    0x10(%rsp),%eax
  401660:	69 c0 7c 03 00 00    	imul   $0x37c,%eax,%eax
  401666:	89 44 24 10          	mov    %eax,0x10(%rsp)
  40166a:	8b 44 24 0c          	mov    0xc(%rsp),%eax
  40166e:	69 c0 8f 3d 00 00    	imul   $0x3d8f,%eax,%eax
  401674:	89 44 24 0c          	mov    %eax,0xc(%rsp)
  401678:	8b 04 24             	mov    (%rsp),%eax
  40167b:	69 c0 ec 36 00 00    	imul   $0x36ec,%eax,%eax
  401681:	89 04 24             	mov    %eax,(%rsp)
  401684:	8b 44 24 10          	mov    0x10(%rsp),%eax
  401688:	69 c0 98 20 00 00    	imul   $0x2098,%eax,%eax
  40168e:	89 44 24 10          	mov    %eax,0x10(%rsp)
  401692:	8b 44 24 0c          	mov    0xc(%rsp),%eax
  401696:	69 c0 d6 28 00 00    	imul   $0x28d6,%eax,%eax
  40169c:	89 44 24 0c          	mov    %eax,0xc(%rsp)
  4016a0:	8b 04 24             	mov    (%rsp),%eax
  4016a3:	69 c0 cb ba 00 00    	imul   $0xbacb,%eax,%eax
  4016a9:	89 04 24             	mov    %eax,(%rsp)
  4016ac:	8b 44 24 08          	mov    0x8(%rsp),%eax
  4016b0:	69 c0 19 e2 00 00    	imul   $0xe219,%eax,%eax
  4016b6:	89 44 24 08          	mov    %eax,0x8(%rsp)
  4016ba:	8b 44 24 0c          	mov    0xc(%rsp),%eax
  4016be:	69 c0 d6 a4 00 00    	imul   $0xa4d6,%eax,%eax
  4016c4:	89 44 24 0c          	mov    %eax,0xc(%rsp)
  4016c8:	8b 44 24 04          	mov    0x4(%rsp),%eax
  4016cc:	69 c0 ac 4b 00 00    	imul   $0x4bac,%eax,%eax
  4016d2:	89 44 24 04          	mov    %eax,0x4(%rsp)
  4016d6:	8b 44 24 0c          	mov    0xc(%rsp),%eax
  4016da:	69 c0 1f e4 00 00    	imul   $0xe41f,%eax,%eax
  4016e0:	89 44 24 0c          	mov    %eax,0xc(%rsp)
  4016e4:	8b 44 24 08          	mov    0x8(%rsp),%eax
  4016e8:	69 c0 34 72 00 00    	imul   $0x7234,%eax,%eax
  4016ee:	89 44 24 08          	mov    %eax,0x8(%rsp)
  4016f2:	8b 44 24 1c          	mov    0x1c(%rsp),%eax
  4016f6:	69 c0 b5 0d 00 00    	imul   $0xdb5,%eax,%eax
  4016fc:	89 44 24 1c          	mov    %eax,0x1c(%rsp)
  401700:	8b 44 24 14          	mov    0x14(%rsp),%eax
  401704:	69 c0 d7 ef 00 00    	imul   $0xefd7,%eax,%eax
  40170a:	89 44 24 14          	mov    %eax,0x14(%rsp)
  40170e:	8b 04 24             	mov    (%rsp),%eax
  401711:	69 c0 e0 30 00 00    	imul   $0x30e0,%eax,%eax
  401717:	89 04 24             	mov    %eax,(%rsp)
  40171a:	8b 44 24 18          	mov    0x18(%rsp),%eax
  40171e:	69 c0 d8 60 00 00    	imul   $0x60d8,%eax,%eax
  401724:	89 44 24 18          	mov    %eax,0x18(%rsp)
  401728:	8b 44 24 08          	mov    0x8(%rsp),%eax
  40172c:	69 c0 93 c6 00 00    	imul   $0xc693,%eax,%eax
  401732:	89 44 24 08          	mov    %eax,0x8(%rsp)
  401736:	8b 44 24 18          	mov    0x18(%rsp),%eax
  40173a:	69 c0 1f 35 00 00    	imul   $0x351f,%eax,%eax
  401740:	89 44 24 18          	mov    %eax,0x18(%rsp)
  401744:	8b 44 24 14          	mov    0x14(%rsp),%eax
  401748:	69 c0 ea 21 00 00    	imul   $0x21ea,%eax,%eax
  40174e:	89 44 24 14          	mov    %eax,0x14(%rsp)
  401752:	8b 04 24             	mov    (%rsp),%eax
  401755:	69 c0 81 90 00 00    	imul   $0x9081,%eax,%eax
  40175b:	89 04 24             	mov    %eax,(%rsp)
  40175e:	8b 44 24 24          	mov    0x24(%rsp),%eax
  401762:	69 c0 1b 28 00 00    	imul   $0x281b,%eax,%eax
  401768:	89 44 24 24          	mov    %eax,0x24(%rsp)
  40176c:	8b 44 24 24          	mov    0x24(%rsp),%eax
  401770:	69 c0 f5 5e 00 00    	imul   $0x5ef5,%eax,%eax
  401776:	89 44 24 24          	mov    %eax,0x24(%rsp)
  40177a:	8b 44 24 10          	mov    0x10(%rsp),%eax
  40177e:	69 c0 2f 1c 00 00    	imul   $0x1c2f,%eax,%eax
  401784:	89 44 24 10          	mov    %eax,0x10(%rsp)
  401788:	8b 44 24 24          	mov    0x24(%rsp),%eax
  40178c:	69 c0 6d 66 00 00    	imul   $0x666d,%eax,%eax
  401792:	89 44 24 24          	mov    %eax,0x24(%rsp)
  401796:	8b 44 24 0c          	mov    0xc(%rsp),%eax
  40179a:	69 c0 d5 6f 00 00    	imul   $0x6fd5,%eax,%eax
  4017a0:	89 44 24 0c          	mov    %eax,0xc(%rsp)
  4017a4:	8b 44 24 20          	mov    0x20(%rsp),%eax
  4017a8:	69 c0 d2 6d 00 00    	imul   $0x6dd2,%eax,%eax
  4017ae:	89 44 24 20          	mov    %eax,0x20(%rsp)
  4017b2:	8b 44 24 08          	mov    0x8(%rsp),%eax
  4017b6:	69 c0 6c df 00 00    	imul   $0xdf6c,%eax,%eax
  4017bc:	89 44 24 08          	mov    %eax,0x8(%rsp)
  4017c0:	8b 44 24 24          	mov    0x24(%rsp),%eax
  4017c4:	69 c0 12 eb 00 00    	imul   $0xeb12,%eax,%eax
  4017ca:	89 44 24 24          	mov    %eax,0x24(%rsp)
  4017ce:	8b 44 24 14          	mov    0x14(%rsp),%eax
  4017d2:	69 c0 f0 7c 00 00    	imul   $0x7cf0,%eax,%eax
  4017d8:	89 44 24 14          	mov    %eax,0x14(%rsp)
  4017dc:	8b 44 24 10          	mov    0x10(%rsp),%eax
  4017e0:	69 c0 32 87 00 00    	imul   $0x8732,%eax,%eax
  4017e6:	89 44 24 10          	mov    %eax,0x10(%rsp)
  4017ea:	8b 04 24             	mov    (%rsp),%eax
  4017ed:	69 c0 69 b5 00 00    	imul   $0xb569,%eax,%eax
  4017f3:	89 04 24             	mov    %eax,(%rsp)
  4017f6:	8b 44 24 08          	mov    0x8(%rsp),%eax
  4017fa:	69 c0 d5 11 00 00    	imul   $0x11d5,%eax,%eax
  401800:	89 44 24 08          	mov    %eax,0x8(%rsp)
  401804:	8b 44 24 08          	mov    0x8(%rsp),%eax
  401808:	69 c0 5e 4c 00 00    	imul   $0x4c5e,%eax,%eax
  40180e:	89 44 24 08          	mov    %eax,0x8(%rsp)
  401812:	8b 04 24             	mov    (%rsp),%eax
  401815:	69 c0 1f 80 00 00    	imul   $0x801f,%eax,%eax
  40181b:	89 04 24             	mov    %eax,(%rsp)
  40181e:	8b 44 24 20          	mov    0x20(%rsp),%eax
  401822:	69 c0 ff b2 00 00    	imul   $0xb2ff,%eax,%eax
  401828:	89 44 24 20          	mov    %eax,0x20(%rsp)
  40182c:	8b 44 24 24          	mov    0x24(%rsp),%eax
  401830:	69 c0 ca b0 00 00    	imul   $0xb0ca,%eax,%eax
  401836:	89 44 24 24          	mov    %eax,0x24(%rsp)
  40183a:	8b 44 24 1c          	mov    0x1c(%rsp),%eax
  40183e:	69 c0 f7 c9 00 00    	imul   $0xc9f7,%eax,%eax
  401844:	89 44 24 1c          	mov    %eax,0x1c(%rsp)
  401848:	8b 44 24 20          	mov    0x20(%rsp),%eax
  40184c:	69 c0 02 be 00 00    	imul   $0xbe02,%eax,%eax
  401852:	89 44 24 20          	mov    %eax,0x20(%rsp)
  401856:	8b 44 24 0c          	mov    0xc(%rsp),%eax
  40185a:	69 c0 ce 50 00 00    	imul   $0x50ce,%eax,%eax
  401860:	89 44 24 0c          	mov    %eax,0xc(%rsp)
  401864:	8b 44 24 04          	mov    0x4(%rsp),%eax
  401868:	69 c0 2b a7 00 00    	imul   $0xa72b,%eax,%eax
  40186e:	89 44 24 04          	mov    %eax,0x4(%rsp)
  401872:	8b 44 24 1c          	mov    0x1c(%rsp),%eax
  401876:	69 c0 88 d6 00 00    	imul   $0xd688,%eax,%eax
  40187c:	89 44 24 1c          	mov    %eax,0x1c(%rsp)
  401880:	8b 44 24 10          	mov    0x10(%rsp),%eax
  401884:	69 c0 98 14 00 00    	imul   $0x1498,%eax,%eax
  40188a:	89 44 24 10          	mov    %eax,0x10(%rsp)
  40188e:	8b 44 24 08          	mov    0x8(%rsp),%eax
  401892:	69 c0 03 f5 00 00    	imul   $0xf503,%eax,%eax
  401898:	89 44 24 08          	mov    %eax,0x8(%rsp)
  40189c:	8b 44 24 0c          	mov    0xc(%rsp),%eax
  4018a0:	69 c0 15 a3 00 00    	imul   $0xa315,%eax,%eax
  4018a6:	89 44 24 0c          	mov    %eax,0xc(%rsp)
  4018aa:	8b 44 24 0c          	mov    0xc(%rsp),%eax
  4018ae:	69 c0 94 da 00 00    	imul   $0xda94,%eax,%eax
  4018b4:	89 44 24 0c          	mov    %eax,0xc(%rsp)
  4018b8:	8b 44 24 0c          	mov    0xc(%rsp),%eax
  4018bc:	69 c0 c4 1f 00 00    	imul   $0x1fc4,%eax,%eax
  4018c2:	89 44 24 0c          	mov    %eax,0xc(%rsp)
  4018c6:	8b 44 24 24          	mov    0x24(%rsp),%eax
  4018ca:	69 c0 51 12 00 00    	imul   $0x1251,%eax,%eax
  4018d0:	89 44 24 24          	mov    %eax,0x24(%rsp)
  4018d4:	8b 44 24 24          	mov    0x24(%rsp),%eax
  4018d8:	69 c0 fa 0b 00 00    	imul   $0xbfa,%eax,%eax
  4018de:	89 44 24 24          	mov    %eax,0x24(%rsp)
  4018e2:	8b 44 24 1c          	mov    0x1c(%rsp),%eax
  4018e6:	69 c0 8d 78 00 00    	imul   $0x788d,%eax,%eax
  4018ec:	89 44 24 1c          	mov    %eax,0x1c(%rsp)
  4018f0:	8b 44 24 08          	mov    0x8(%rsp),%eax
  4018f4:	69 c0 f8 cc 00 00    	imul   $0xccf8,%eax,%eax
  4018fa:	89 44 24 08          	mov    %eax,0x8(%rsp)
  4018fe:	8b 44 24 10          	mov    0x10(%rsp),%eax
  401902:	69 c0 b9 9c 00 00    	imul   $0x9cb9,%eax,%eax
  401908:	89 44 24 10          	mov    %eax,0x10(%rsp)
  40190c:	8b 44 24 18          	mov    0x18(%rsp),%eax
  401910:	69 c0 a7 06 00 00    	imul   $0x6a7,%eax,%eax
  401916:	89 44 24 18          	mov    %eax,0x18(%rsp)
  40191a:	8b 44 24 14          	mov    0x14(%rsp),%eax
  40191e:	69 c0 82 8d 00 00    	imul   $0x8d82,%eax,%eax
  401924:	89 44 24 14          	mov    %eax,0x14(%rsp)
  401928:	8b 44 24 20          	mov    0x20(%rsp),%eax
  40192c:	69 c0 d6 4c 00 00    	imul   $0x4cd6,%eax,%eax
  401932:	89 44 24 20          	mov    %eax,0x20(%rsp)
  401936:	8b 44 24 14          	mov    0x14(%rsp),%eax
  40193a:	69 c0 18 e9 00 00    	imul   $0xe918,%eax,%eax
  401940:	89 44 24 14          	mov    %eax,0x14(%rsp)
  401944:	8b 44 24 18          	mov    0x18(%rsp),%eax
  401948:	69 c0 f3 9e 00 00    	imul   $0x9ef3,%eax,%eax
  40194e:	89 44 24 18          	mov    %eax,0x18(%rsp)
  401952:	8b 44 24 0c          	mov    0xc(%rsp),%eax
  401956:	69 c0 fe 08 00 00    	imul   $0x8fe,%eax,%eax
  40195c:	89 44 24 0c          	mov    %eax,0xc(%rsp)
  401960:	8b 44 24 14          	mov    0x14(%rsp),%eax
  401964:	69 c0 94 75 00 00    	imul   $0x7594,%eax,%eax
  40196a:	89 44 24 14          	mov    %eax,0x14(%rsp)
  40196e:	8b 44 24 1c          	mov    0x1c(%rsp),%eax
  401972:	69 c0 36 b3 00 00    	imul   $0xb336,%eax,%eax
  401978:	89 44 24 1c          	mov    %eax,0x1c(%rsp)
  40197c:	8b 44 24 18          	mov    0x18(%rsp),%eax
  401980:	69 c0 f5 6f 00 00    	imul   $0x6ff5,%eax,%eax
  401986:	89 44 24 18          	mov    %eax,0x18(%rsp)
  40198a:	8b 44 24 24          	mov    0x24(%rsp),%eax
  40198e:	69 c0 f0 42 00 00    	imul   $0x42f0,%eax,%eax
  401994:	89 44 24 24          	mov    %eax,0x24(%rsp)
  401998:	8b 44 24 1c          	mov    0x1c(%rsp),%eax
  40199c:	69 c0 c7 1d 00 00    	imul   $0x1dc7,%eax,%eax
  4019a2:	89 44 24 1c          	mov    %eax,0x1c(%rsp)
  4019a6:	8b 44 24 1c          	mov    0x1c(%rsp),%eax
  4019aa:	69 c0 52 c1 00 00    	imul   $0xc152,%eax,%eax
  4019b0:	89 44 24 1c          	mov    %eax,0x1c(%rsp)
  4019b4:	8b 44 24 14          	mov    0x14(%rsp),%eax
  4019b8:	69 c0 f1 b3 00 00    	imul   $0xb3f1,%eax,%eax
  4019be:	89 44 24 14          	mov    %eax,0x14(%rsp)
  4019c2:	8b 44 24 24          	mov    0x24(%rsp),%eax
  4019c6:	69 c0 da b5 00 00    	imul   $0xb5da,%eax,%eax
  4019cc:	89 44 24 24          	mov    %eax,0x24(%rsp)
  4019d0:	8b 44 24 14          	mov    0x14(%rsp),%eax
  4019d4:	69 c0 6b 65 00 00    	imul   $0x656b,%eax,%eax
  4019da:	89 44 24 14          	mov    %eax,0x14(%rsp)
  4019de:	8b 44 24 0c          	mov    0xc(%rsp),%eax
  4019e2:	69 c0 ab fe 00 00    	imul   $0xfeab,%eax,%eax
  4019e8:	89 44 24 0c          	mov    %eax,0xc(%rsp)
  4019ec:	8b 44 24 24          	mov    0x24(%rsp),%eax
  4019f0:	69 c0 43 b9 00 00    	imul   $0xb943,%eax,%eax
  4019f6:	89 44 24 24          	mov    %eax,0x24(%rsp)
  4019fa:	8b 44 24 24          	mov    0x24(%rsp),%eax
  4019fe:	69 c0 bc 30 00 00    	imul   $0x30bc,%eax,%eax
  401a04:	89 44 24 24          	mov    %eax,0x24(%rsp)
  401a08:	8b 44 24 24          	mov    0x24(%rsp),%eax
  401a0c:	69 c0 7d 6a 00 00    	imul   $0x6a7d,%eax,%eax
  401a12:	89 44 24 24          	mov    %eax,0x24(%rsp)
  401a16:	8b 44 24 04          	mov    0x4(%rsp),%eax
  401a1a:	69 c0 1a fa 00 00    	imul   $0xfa1a,%eax,%eax
  401a20:	89 44 24 04          	mov    %eax,0x4(%rsp)
  401a24:	8b 44 24 20          	mov    0x20(%rsp),%eax
  401a28:	69 c0 75 d9 00 00    	imul   $0xd975,%eax,%eax
  401a2e:	89 44 24 20          	mov    %eax,0x20(%rsp)
  401a32:	8b 04 24             	mov    (%rsp),%eax
  401a35:	69 c0 fc bc 00 00    	imul   $0xbcfc,%eax,%eax
  401a3b:	89 04 24             	mov    %eax,(%rsp)
  401a3e:	8b 44 24 08          	mov    0x8(%rsp),%eax
  401a42:	69 c0 1a 01 00 00    	imul   $0x11a,%eax,%eax
  401a48:	89 44 24 08          	mov    %eax,0x8(%rsp)
  401a4c:	8b 44 24 1c          	mov    0x1c(%rsp),%eax
  401a50:	69 c0 b3 67 00 00    	imul   $0x67b3,%eax,%eax
  401a56:	89 44 24 1c          	mov    %eax,0x1c(%rsp)
  401a5a:	ba 00 00 00 00       	mov    $0x0,%edx
  401a5f:	b8 00 00 00 00       	mov    $0x0,%eax
  401a64:	eb 0a                	jmp    401a70 <scramble+0x581>
  401a66:	89 d1                	mov    %edx,%ecx
  401a68:	8b 0c 8c             	mov    (%rsp,%rcx,4),%ecx
  401a6b:	01 c8                	add    %ecx,%eax
  401a6d:	83 c2 01             	add    $0x1,%edx
  401a70:	83 fa 09             	cmp    $0x9,%edx
  401a73:	76 f1                	jbe    401a66 <scramble+0x577>
  401a75:	48 8b 74 24 28       	mov    0x28(%rsp),%rsi
  401a7a:	64 48 33 34 25 28 00 	xor    %fs:0x28,%rsi
  401a81:	00 00 
  401a83:	74 05                	je     401a8a <scramble+0x59b>
  401a85:	e8 96 f3 ff ff       	callq  400e20 <__stack_chk_fail@plt>
  401a8a:	48 83 c4 38          	add    $0x38,%rsp
  401a8e:	c3                   	retq   

0000000000401a8f <getbuf>:
  401a8f:	48 83 ec 48          	sub    $0x48,%rsp
  401a93:	48 89 e7             	mov    %rsp,%rdi
  401a96:	e8 15 04 00 00       	callq  401eb0 <Gets>
  401a9b:	b8 01 00 00 00       	mov    $0x1,%eax
  401aa0:	48 83 c4 48          	add    $0x48,%rsp
  401aa4:	c3                   	retq   

0000000000401aa5 <touch1>:
  401aa5:	48 83 ec 08          	sub    $0x8,%rsp
  401aa9:	bf 04 00 00 00       	mov    $0x4,%edi
  401aae:	e8 dd f3 ff ff       	callq  400e90 <srand@plt>
  401ab3:	e8 18 f5 ff ff       	callq  400fd0 <rand@plt>
  401ab8:	89 c1                	mov    %eax,%ecx
  401aba:	ba e9 a2 8b 2e       	mov    $0x2e8ba2e9,%edx
  401abf:	f7 ea                	imul   %edx
  401ac1:	d1 fa                	sar    %edx
  401ac3:	89 c8                	mov    %ecx,%eax
  401ac5:	c1 f8 1f             	sar    $0x1f,%eax
  401ac8:	29 c2                	sub    %eax,%edx
  401aca:	8d 04 92             	lea    (%rdx,%rdx,4),%eax
  401acd:	8d 04 42             	lea    (%rdx,%rax,2),%eax
  401ad0:	29 c1                	sub    %eax,%ecx
  401ad2:	83 f9 02             	cmp    $0x2,%ecx
  401ad5:	74 20                	je     401af7 <touch1+0x52>
  401ad7:	c7 05 5b 3a 20 00 01 	movl   $0x1,0x203a5b(%rip)        # 60553c <vlevel>
  401ade:	00 00 00 
  401ae1:	bf 2b 38 40 00       	mov    $0x40382b,%edi
  401ae6:	e8 15 f3 ff ff       	callq  400e00 <puts@plt>
  401aeb:	bf 01 00 00 00       	mov    $0x1,%edi
  401af0:	e8 fb 05 00 00       	callq  4020f0 <validate>
  401af5:	eb 14                	jmp    401b0b <touch1+0x66>
  401af7:	bf 58 38 40 00       	mov    $0x403858,%edi
  401afc:	e8 ff f2 ff ff       	callq  400e00 <puts@plt>
  401b01:	bf 01 00 00 00       	mov    $0x1,%edi
  401b06:	e8 a7 06 00 00       	callq  4021b2 <fail>
  401b0b:	bf 00 00 00 00       	mov    $0x0,%edi
  401b10:	e8 8b f4 ff ff       	callq  400fa0 <exit@plt>

0000000000401b15 <touch2>:
  401b15:	48 83 ec 08          	sub    $0x8,%rsp
  401b19:	c7 05 19 3a 20 00 02 	movl   $0x2,0x203a19(%rip)        # 60553c <vlevel>
  401b20:	00 00 00 
  401b23:	8b 05 1b 3a 20 00    	mov    0x203a1b(%rip),%eax        # 605544 <cookie>
  401b29:	39 f8                	cmp    %edi,%eax
  401b2b:	75 2b                	jne    401b58 <touch2+0x43>
  401b2d:	6b c0 03             	imul   $0x3,%eax,%eax
  401b30:	39 f0                	cmp    %esi,%eax
  401b32:	75 24                	jne    401b58 <touch2+0x43>
  401b34:	89 f1                	mov    %esi,%ecx
  401b36:	89 fa                	mov    %edi,%edx
  401b38:	be a0 38 40 00       	mov    $0x4038a0,%esi
  401b3d:	bf 01 00 00 00       	mov    $0x1,%edi
  401b42:	b8 00 00 00 00       	mov    $0x0,%eax
  401b47:	e8 04 f4 ff ff       	callq  400f50 <__printf_chk@plt>
  401b4c:	bf 02 00 00 00       	mov    $0x2,%edi
  401b51:	e8 9a 05 00 00       	callq  4020f0 <validate>
  401b56:	eb 22                	jmp    401b7a <touch2+0x65>
  401b58:	89 f1                	mov    %esi,%ecx
  401b5a:	89 fa                	mov    %edi,%edx
  401b5c:	be d0 38 40 00       	mov    $0x4038d0,%esi
  401b61:	bf 01 00 00 00       	mov    $0x1,%edi
  401b66:	b8 00 00 00 00       	mov    $0x0,%eax
  401b6b:	e8 e0 f3 ff ff       	callq  400f50 <__printf_chk@plt>
  401b70:	bf 02 00 00 00       	mov    $0x2,%edi
  401b75:	e8 38 06 00 00       	callq  4021b2 <fail>
  401b7a:	bf 00 00 00 00       	mov    $0x0,%edi
  401b7f:	e8 1c f4 ff ff       	callq  400fa0 <exit@plt>

0000000000401b84 <hexmatch>:
  401b84:	41 54                	push   %r12
  401b86:	55                   	push   %rbp
  401b87:	53                   	push   %rbx
  401b88:	48 83 c4 80          	add    $0xffffffffffffff80,%rsp
  401b8c:	64 48 8b 04 25 28 00 	mov    %fs:0x28,%rax
  401b93:	00 00 
  401b95:	48 89 44 24 78       	mov    %rax,0x78(%rsp)
  401b9a:	31 c0                	xor    %eax,%eax
  401b9c:	48 85 f6             	test   %rsi,%rsi
  401b9f:	74 6e                	je     401c0f <hexmatch+0x8b>
  401ba1:	89 fd                	mov    %edi,%ebp
  401ba3:	48 89 f3             	mov    %rsi,%rbx
  401ba6:	e8 55 f3 ff ff       	callq  400f00 <random@plt>
  401bab:	48 89 c1             	mov    %rax,%rcx
  401bae:	48 ba 05 79 4a 90 a7 	movabs $0x4a7904a7904a7905,%rdx
  401bb5:	04 79 4a 
  401bb8:	48 f7 ea             	imul   %rdx
  401bbb:	48 c1 fa 05          	sar    $0x5,%rdx
  401bbf:	48 89 c8             	mov    %rcx,%rax
  401bc2:	48 c1 f8 3f          	sar    $0x3f,%rax
  401bc6:	48 29 c2             	sub    %rax,%rdx
  401bc9:	48 6b d2 6e          	imul   $0x6e,%rdx,%rdx
  401bcd:	48 29 d1             	sub    %rdx,%rcx
  401bd0:	4c 8d 24 0c          	lea    (%rsp,%rcx,1),%r12
  401bd4:	41 89 e8             	mov    %ebp,%r8d
  401bd7:	b9 48 38 40 00       	mov    $0x403848,%ecx
  401bdc:	48 c7 c2 ff ff ff ff 	mov    $0xffffffffffffffff,%rdx
  401be3:	be 01 00 00 00       	mov    $0x1,%esi
  401be8:	4c 89 e7             	mov    %r12,%rdi
  401beb:	b8 00 00 00 00       	mov    $0x0,%eax
  401bf0:	e8 eb f3 ff ff       	callq  400fe0 <__sprintf_chk@plt>
  401bf5:	ba 09 00 00 00       	mov    $0x9,%edx
  401bfa:	4c 89 e6             	mov    %r12,%rsi
  401bfd:	48 89 df             	mov    %rbx,%rdi
  401c00:	e8 db f1 ff ff       	callq  400de0 <strncmp@plt>
  401c05:	85 c0                	test   %eax,%eax
  401c07:	0f 94 c0             	sete   %al
  401c0a:	0f b6 c0             	movzbl %al,%eax
  401c0d:	eb 05                	jmp    401c14 <hexmatch+0x90>
  401c0f:	b8 00 00 00 00       	mov    $0x0,%eax
  401c14:	48 8b 74 24 78       	mov    0x78(%rsp),%rsi
  401c19:	64 48 33 34 25 28 00 	xor    %fs:0x28,%rsi
  401c20:	00 00 
  401c22:	74 05                	je     401c29 <hexmatch+0xa5>
  401c24:	e8 f7 f1 ff ff       	callq  400e20 <__stack_chk_fail@plt>
  401c29:	48 83 ec 80          	sub    $0xffffffffffffff80,%rsp
  401c2d:	5b                   	pop    %rbx
  401c2e:	5d                   	pop    %rbp
  401c2f:	41 5c                	pop    %r12
  401c31:	c3                   	retq   

0000000000401c32 <checkmult>:
  401c32:	41 54                	push   %r12
  401c34:	55                   	push   %rbp
  401c35:	53                   	push   %rbx
  401c36:	48 83 ec 50          	sub    $0x50,%rsp
  401c3a:	64 48 8b 04 25 28 00 	mov    %fs:0x28,%rax
  401c41:	00 00 
  401c43:	48 89 44 24 48       	mov    %rax,0x48(%rsp)
  401c48:	31 c0                	xor    %eax,%eax
  401c4a:	48 85 f6             	test   %rsi,%rsi
  401c4d:	0f 84 96 00 00 00    	je     401ce9 <checkmult+0xb7>
  401c53:	41 89 fc             	mov    %edi,%r12d
  401c56:	48 89 f5             	mov    %rsi,%rbp
  401c59:	e8 a2 f2 ff ff       	callq  400f00 <random@plt>
  401c5e:	48 89 c1             	mov    %rax,%rcx
  401c61:	48 ba 89 88 88 88 88 	movabs $0x8888888888888889,%rdx
  401c68:	88 88 88 
  401c6b:	48 f7 ea             	imul   %rdx
  401c6e:	48 01 ca             	add    %rcx,%rdx
  401c71:	48 c1 fa 05          	sar    $0x5,%rdx
  401c75:	48 89 c8             	mov    %rcx,%rax
  401c78:	48 c1 f8 3f          	sar    $0x3f,%rax
  401c7c:	48 29 c2             	sub    %rax,%rdx
  401c7f:	48 8d 04 95 00 00 00 	lea    0x0(,%rdx,4),%rax
  401c86:	00 
  401c87:	48 c1 e2 06          	shl    $0x6,%rdx
  401c8b:	48 29 c2             	sub    %rax,%rdx
  401c8e:	48 29 d1             	sub    %rdx,%rcx
  401c91:	48 8d 1c 0c          	lea    (%rsp,%rcx,1),%rbx
  401c95:	45 89 e0             	mov    %r12d,%r8d
  401c98:	b9 48 38 40 00       	mov    $0x403848,%ecx
  401c9d:	48 c7 c2 ff ff ff ff 	mov    $0xffffffffffffffff,%rdx
  401ca4:	be 01 00 00 00       	mov    $0x1,%esi
  401ca9:	48 89 df             	mov    %rbx,%rdi
  401cac:	b8 00 00 00 00       	mov    $0x0,%eax
  401cb1:	e8 2a f3 ff ff       	callq  400fe0 <__sprintf_chk@plt>
  401cb6:	ba 00 00 00 00       	mov    $0x0,%edx
  401cbb:	eb 20                	jmp    401cdd <checkmult+0xab>
  401cbd:	48 63 ca             	movslq %edx,%rcx
  401cc0:	b8 07 00 00 00       	mov    $0x7,%eax
  401cc5:	29 d0                	sub    %edx,%eax
  401cc7:	48 98                	cltq   
  401cc9:	0f be 34 0b          	movsbl (%rbx,%rcx,1),%esi
  401ccd:	0f be 04 03          	movsbl (%rbx,%rax,1),%eax
  401cd1:	0f af c6             	imul   %esi,%eax
  401cd4:	39 44 8d 00          	cmp    %eax,0x0(%rbp,%rcx,4)
  401cd8:	75 16                	jne    401cf0 <checkmult+0xbe>
  401cda:	83 c2 01             	add    $0x1,%edx
  401cdd:	83 fa 07             	cmp    $0x7,%edx
  401ce0:	7e db                	jle    401cbd <checkmult+0x8b>
  401ce2:	b8 01 00 00 00       	mov    $0x1,%eax
  401ce7:	eb 0c                	jmp    401cf5 <checkmult+0xc3>
  401ce9:	b8 00 00 00 00       	mov    $0x0,%eax
  401cee:	eb 05                	jmp    401cf5 <checkmult+0xc3>
  401cf0:	b8 00 00 00 00       	mov    $0x0,%eax
  401cf5:	48 8b 7c 24 48       	mov    0x48(%rsp),%rdi
  401cfa:	64 48 33 3c 25 28 00 	xor    %fs:0x28,%rdi
  401d01:	00 00 
  401d03:	74 05                	je     401d0a <checkmult+0xd8>
  401d05:	e8 16 f1 ff ff       	callq  400e20 <__stack_chk_fail@plt>
  401d0a:	48 83 c4 50          	add    $0x50,%rsp
  401d0e:	5b                   	pop    %rbx
  401d0f:	5d                   	pop    %rbp
  401d10:	41 5c                	pop    %r12
  401d12:	c3                   	retq   

0000000000401d13 <touch3>:
  401d13:	55                   	push   %rbp
  401d14:	53                   	push   %rbx
  401d15:	48 83 ec 08          	sub    $0x8,%rsp
  401d19:	48 89 fb             	mov    %rdi,%rbx
  401d1c:	48 89 f5             	mov    %rsi,%rbp
  401d1f:	c7 05 13 38 20 00 03 	movl   $0x3,0x203813(%rip)        # 60553c <vlevel>
  401d26:	00 00 00 
  401d29:	48 89 fe             	mov    %rdi,%rsi
  401d2c:	8b 3d 12 38 20 00    	mov    0x203812(%rip),%edi        # 605544 <cookie>
  401d32:	e8 4d fe ff ff       	callq  401b84 <hexmatch>
  401d37:	85 c0                	test   %eax,%eax
  401d39:	74 28                	je     401d63 <touch3+0x50>
  401d3b:	48 89 ee             	mov    %rbp,%rsi
  401d3e:	8b 3d 00 38 20 00    	mov    0x203800(%rip),%edi        # 605544 <cookie>
  401d44:	e8 e9 fe ff ff       	callq  401c32 <checkmult>
  401d49:	85 c0                	test   %eax,%eax
  401d4b:	74 16                	je     401d63 <touch3+0x50>
  401d4d:	bf 00 39 40 00       	mov    $0x403900,%edi
  401d52:	e8 a9 f0 ff ff       	callq  400e00 <puts@plt>
  401d57:	bf 03 00 00 00       	mov    $0x3,%edi
  401d5c:	e8 8f 03 00 00       	callq  4020f0 <validate>
  401d61:	eb 7a                	jmp    401ddd <touch3+0xca>
  401d63:	48 89 e9             	mov    %rbp,%rcx
  401d66:	48 89 da             	mov    %rbx,%rdx
  401d69:	be 38 39 40 00       	mov    $0x403938,%esi
  401d6e:	bf 01 00 00 00       	mov    $0x1,%edi
  401d73:	b8 00 00 00 00       	mov    $0x0,%eax
  401d78:	e8 d3 f1 ff ff       	callq  400f50 <__printf_chk@plt>
  401d7d:	bf 98 39 40 00       	mov    $0x403998,%edi
  401d82:	e8 79 f0 ff ff       	callq  400e00 <puts@plt>
  401d87:	48 8b 3d 52 37 20 00 	mov    0x203752(%rip),%rdi        # 6054e0 <stdout@@GLIBC_2.2.5>
  401d8e:	e8 7d f1 ff ff       	callq  400f10 <fflush@plt>
  401d93:	bb 00 00 00 00       	mov    $0x0,%ebx
  401d98:	eb 2a                	jmp    401dc4 <touch3+0xb1>
  401d9a:	48 63 c3             	movslq %ebx,%rax
  401d9d:	8b 54 85 00          	mov    0x0(%rbp,%rax,4),%edx
  401da1:	be 4d 38 40 00       	mov    $0x40384d,%esi
  401da6:	bf 01 00 00 00       	mov    $0x1,%edi
  401dab:	b8 00 00 00 00       	mov    $0x0,%eax
  401db0:	e8 9b f1 ff ff       	callq  400f50 <__printf_chk@plt>
  401db5:	48 8b 3d 24 37 20 00 	mov    0x203724(%rip),%rdi        # 6054e0 <stdout@@GLIBC_2.2.5>
  401dbc:	e8 4f f1 ff ff       	callq  400f10 <fflush@plt>
  401dc1:	83 c3 01             	add    $0x1,%ebx
  401dc4:	83 fb 07             	cmp    $0x7,%ebx
  401dc7:	7e d1                	jle    401d9a <touch3+0x87>
  401dc9:	bf 0a 00 00 00       	mov    $0xa,%edi
  401dce:	e8 cd ef ff ff       	callq  400da0 <putchar@plt>
  401dd3:	bf 03 00 00 00       	mov    $0x3,%edi
  401dd8:	e8 d5 03 00 00       	callq  4021b2 <fail>
  401ddd:	bf 00 00 00 00       	mov    $0x0,%edi
  401de2:	e8 b9 f1 ff ff       	callq  400fa0 <exit@plt>

0000000000401de7 <test>:
  401de7:	48 83 ec 08          	sub    $0x8,%rsp
  401deb:	b8 00 00 00 00       	mov    $0x0,%eax
  401df0:	e8 9a fc ff ff       	callq  401a8f <getbuf>
  401df5:	89 c2                	mov    %eax,%edx
  401df7:	be c8 39 40 00       	mov    $0x4039c8,%esi
  401dfc:	bf 01 00 00 00       	mov    $0x1,%edi
  401e01:	b8 00 00 00 00       	mov    $0x0,%eax
  401e06:	e8 45 f1 ff ff       	callq  400f50 <__printf_chk@plt>
  401e0b:	48 83 c4 08          	add    $0x8,%rsp
  401e0f:	c3                   	retq   

0000000000401e10 <save_char>:
  401e10:	8b 05 4e 43 20 00    	mov    0x20434e(%rip),%eax        # 606164 <gets_cnt>
  401e16:	3d ff 03 00 00       	cmp    $0x3ff,%eax
  401e1b:	7f 49                	jg     401e66 <save_char+0x56>
  401e1d:	8d 14 40             	lea    (%rax,%rax,2),%edx
  401e20:	89 f9                	mov    %edi,%ecx
  401e22:	c0 e9 04             	shr    $0x4,%cl
  401e25:	83 e1 0f             	and    $0xf,%ecx
  401e28:	0f b6 b1 f0 3c 40 00 	movzbl 0x403cf0(%rcx),%esi
  401e2f:	48 63 ca             	movslq %edx,%rcx
  401e32:	40 88 b1 60 55 60 00 	mov    %sil,0x605560(%rcx)
  401e39:	8d 4a 01             	lea    0x1(%rdx),%ecx
  401e3c:	83 e7 0f             	and    $0xf,%edi
  401e3f:	0f b6 b7 f0 3c 40 00 	movzbl 0x403cf0(%rdi),%esi
  401e46:	48 63 c9             	movslq %ecx,%rcx
  401e49:	40 88 b1 60 55 60 00 	mov    %sil,0x605560(%rcx)
  401e50:	83 c2 02             	add    $0x2,%edx
  401e53:	48 63 d2             	movslq %edx,%rdx
  401e56:	c6 82 60 55 60 00 20 	movb   $0x20,0x605560(%rdx)
  401e5d:	83 c0 01             	add    $0x1,%eax
  401e60:	89 05 fe 42 20 00    	mov    %eax,0x2042fe(%rip)        # 606164 <gets_cnt>
  401e66:	f3 c3                	repz retq 

0000000000401e68 <save_term>:
  401e68:	8b 05 f6 42 20 00    	mov    0x2042f6(%rip),%eax        # 606164 <gets_cnt>
  401e6e:	8d 04 40             	lea    (%rax,%rax,2),%eax
  401e71:	48 98                	cltq   
  401e73:	c6 80 60 55 60 00 00 	movb   $0x0,0x605560(%rax)
  401e7a:	c3                   	retq   

0000000000401e7b <check_fail>:
  401e7b:	48 83 ec 08          	sub    $0x8,%rsp
  401e7f:	0f be 15 e2 42 20 00 	movsbl 0x2042e2(%rip),%edx        # 606168 <target_prefix>
  401e86:	41 b8 60 55 60 00    	mov    $0x605560,%r8d
  401e8c:	8b 0d a6 36 20 00    	mov    0x2036a6(%rip),%ecx        # 605538 <check_level>
  401e92:	be eb 39 40 00       	mov    $0x4039eb,%esi
  401e97:	bf 01 00 00 00       	mov    $0x1,%edi
  401e9c:	b8 00 00 00 00       	mov    $0x0,%eax
  401ea1:	e8 aa f0 ff ff       	callq  400f50 <__printf_chk@plt>
  401ea6:	bf 01 00 00 00       	mov    $0x1,%edi
  401eab:	e8 f0 f0 ff ff       	callq  400fa0 <exit@plt>

0000000000401eb0 <Gets>:
  401eb0:	41 54                	push   %r12
  401eb2:	55                   	push   %rbp
  401eb3:	53                   	push   %rbx
  401eb4:	49 89 fc             	mov    %rdi,%r12
  401eb7:	c7 05 a3 42 20 00 00 	movl   $0x0,0x2042a3(%rip)        # 606164 <gets_cnt>
  401ebe:	00 00 00 
  401ec1:	48 89 fb             	mov    %rdi,%rbx
  401ec4:	eb 11                	jmp    401ed7 <Gets+0x27>
  401ec6:	48 8d 6b 01          	lea    0x1(%rbx),%rbp
  401eca:	88 03                	mov    %al,(%rbx)
  401ecc:	0f b6 f8             	movzbl %al,%edi
  401ecf:	e8 3c ff ff ff       	callq  401e10 <save_char>
  401ed4:	48 89 eb             	mov    %rbp,%rbx
  401ed7:	48 8b 3d 52 36 20 00 	mov    0x203652(%rip),%rdi        # 605530 <infile>
  401ede:	e8 3d f0 ff ff       	callq  400f20 <_IO_getc@plt>
  401ee3:	83 f8 ff             	cmp    $0xffffffff,%eax
  401ee6:	75 de                	jne    401ec6 <Gets+0x16>
  401ee8:	c6 03 00             	movb   $0x0,(%rbx)
  401eeb:	b8 00 00 00 00       	mov    $0x0,%eax
  401ef0:	e8 73 ff ff ff       	callq  401e68 <save_term>
  401ef5:	4c 89 e0             	mov    %r12,%rax
  401ef8:	5b                   	pop    %rbx
  401ef9:	5d                   	pop    %rbp
  401efa:	41 5c                	pop    %r12
  401efc:	c3                   	retq   

0000000000401efd <notify_server>:
  401efd:	53                   	push   %rbx
  401efe:	48 81 ec 10 40 00 00 	sub    $0x4010,%rsp
  401f05:	64 48 8b 04 25 28 00 	mov    %fs:0x28,%rax
  401f0c:	00 00 
  401f0e:	48 89 84 24 08 40 00 	mov    %rax,0x4008(%rsp)
  401f15:	00 
  401f16:	31 c0                	xor    %eax,%eax
  401f18:	83 3d 29 36 20 00 00 	cmpl   $0x0,0x203629(%rip)        # 605548 <is_checker>
  401f1f:	0f 85 aa 01 00 00    	jne    4020cf <notify_server+0x1d2>
  401f25:	89 fb                	mov    %edi,%ebx
  401f27:	8b 05 37 42 20 00    	mov    0x204237(%rip),%eax        # 606164 <gets_cnt>
  401f2d:	83 c0 64             	add    $0x64,%eax
  401f30:	3d 00 20 00 00       	cmp    $0x2000,%eax
  401f35:	7e 1e                	jle    401f55 <notify_server+0x58>
  401f37:	be 20 3b 40 00       	mov    $0x403b20,%esi
  401f3c:	bf 01 00 00 00       	mov    $0x1,%edi
  401f41:	b8 00 00 00 00       	mov    $0x0,%eax
  401f46:	e8 05 f0 ff ff       	callq  400f50 <__printf_chk@plt>
  401f4b:	bf 01 00 00 00       	mov    $0x1,%edi
  401f50:	e8 4b f0 ff ff       	callq  400fa0 <exit@plt>
  401f55:	0f be 05 0c 42 20 00 	movsbl 0x20420c(%rip),%eax        # 606168 <target_prefix>
  401f5c:	83 3d 65 35 20 00 00 	cmpl   $0x0,0x203565(%rip)        # 6054c8 <notify>
  401f63:	74 08                	je     401f6d <notify_server+0x70>
  401f65:	8b 15 d5 35 20 00    	mov    0x2035d5(%rip),%edx        # 605540 <authkey>
  401f6b:	eb 05                	jmp    401f72 <notify_server+0x75>
  401f6d:	ba ff ff ff ff       	mov    $0xffffffff,%edx
  401f72:	85 db                	test   %ebx,%ebx
  401f74:	74 08                	je     401f7e <notify_server+0x81>
  401f76:	41 b9 01 3a 40 00    	mov    $0x403a01,%r9d
  401f7c:	eb 06                	jmp    401f84 <notify_server+0x87>
  401f7e:	41 b9 06 3a 40 00    	mov    $0x403a06,%r9d
  401f84:	68 60 55 60 00       	pushq  $0x605560
  401f89:	56                   	push   %rsi
  401f8a:	50                   	push   %rax
  401f8b:	52                   	push   %rdx
  401f8c:	44 8b 05 f5 31 20 00 	mov    0x2031f5(%rip),%r8d        # 605188 <target_id>
  401f93:	b9 0b 3a 40 00       	mov    $0x403a0b,%ecx
  401f98:	ba 00 20 00 00       	mov    $0x2000,%edx
  401f9d:	be 01 00 00 00       	mov    $0x1,%esi
  401fa2:	48 8d 7c 24 20       	lea    0x20(%rsp),%rdi
  401fa7:	b8 00 00 00 00       	mov    $0x0,%eax
  401fac:	e8 2f f0 ff ff       	callq  400fe0 <__sprintf_chk@plt>
  401fb1:	48 83 c4 20          	add    $0x20,%rsp
  401fb5:	83 3d 0c 35 20 00 00 	cmpl   $0x0,0x20350c(%rip)        # 6054c8 <notify>
  401fbc:	0f 84 81 00 00 00    	je     402043 <notify_server+0x146>
  401fc2:	85 db                	test   %ebx,%ebx
  401fc4:	74 6e                	je     402034 <notify_server+0x137>
  401fc6:	4c 8d 8c 24 00 20 00 	lea    0x2000(%rsp),%r9
  401fcd:	00 
  401fce:	41 b8 00 00 00 00    	mov    $0x0,%r8d
  401fd4:	48 89 e1             	mov    %rsp,%rcx
  401fd7:	48 8b 15 b2 31 20 00 	mov    0x2031b2(%rip),%rdx        # 605190 <lab>
  401fde:	48 8b 35 b3 31 20 00 	mov    0x2031b3(%rip),%rsi        # 605198 <course>
  401fe5:	48 8b 3d 94 31 20 00 	mov    0x203194(%rip),%rdi        # 605180 <user_id>
  401fec:	e8 ef 10 00 00       	callq  4030e0 <driver_post>
  401ff1:	85 c0                	test   %eax,%eax
  401ff3:	79 26                	jns    40201b <notify_server+0x11e>
  401ff5:	48 8d 94 24 00 20 00 	lea    0x2000(%rsp),%rdx
  401ffc:	00 
  401ffd:	be 27 3a 40 00       	mov    $0x403a27,%esi
  402002:	bf 01 00 00 00       	mov    $0x1,%edi
  402007:	b8 00 00 00 00       	mov    $0x0,%eax
  40200c:	e8 3f ef ff ff       	callq  400f50 <__printf_chk@plt>
  402011:	bf 01 00 00 00       	mov    $0x1,%edi
  402016:	e8 85 ef ff ff       	callq  400fa0 <exit@plt>
  40201b:	bf 50 3b 40 00       	mov    $0x403b50,%edi
  402020:	e8 db ed ff ff       	callq  400e00 <puts@plt>
  402025:	bf 33 3a 40 00       	mov    $0x403a33,%edi
  40202a:	e8 d1 ed ff ff       	callq  400e00 <puts@plt>
  40202f:	e9 9b 00 00 00       	jmpq   4020cf <notify_server+0x1d2>
  402034:	bf 3d 3a 40 00       	mov    $0x403a3d,%edi
  402039:	e8 c2 ed ff ff       	callq  400e00 <puts@plt>
  40203e:	e9 8c 00 00 00       	jmpq   4020cf <notify_server+0x1d2>
  402043:	85 db                	test   %ebx,%ebx
  402045:	74 07                	je     40204e <notify_server+0x151>
  402047:	ba 01 3a 40 00       	mov    $0x403a01,%edx
  40204c:	eb 05                	jmp    402053 <notify_server+0x156>
  40204e:	ba 06 3a 40 00       	mov    $0x403a06,%edx
  402053:	be 88 3b 40 00       	mov    $0x403b88,%esi
  402058:	bf 01 00 00 00       	mov    $0x1,%edi
  40205d:	b8 00 00 00 00       	mov    $0x0,%eax
  402062:	e8 e9 ee ff ff       	callq  400f50 <__printf_chk@plt>
  402067:	48 8b 15 12 31 20 00 	mov    0x203112(%rip),%rdx        # 605180 <user_id>
  40206e:	be 44 3a 40 00       	mov    $0x403a44,%esi
  402073:	bf 01 00 00 00       	mov    $0x1,%edi
  402078:	b8 00 00 00 00       	mov    $0x0,%eax
  40207d:	e8 ce ee ff ff       	callq  400f50 <__printf_chk@plt>
  402082:	48 8b 15 0f 31 20 00 	mov    0x20310f(%rip),%rdx        # 605198 <course>
  402089:	be 51 3a 40 00       	mov    $0x403a51,%esi
  40208e:	bf 01 00 00 00       	mov    $0x1,%edi
  402093:	b8 00 00 00 00       	mov    $0x0,%eax
  402098:	e8 b3 ee ff ff       	callq  400f50 <__printf_chk@plt>
  40209d:	48 8b 15 ec 30 20 00 	mov    0x2030ec(%rip),%rdx        # 605190 <lab>
  4020a4:	be 5d 3a 40 00       	mov    $0x403a5d,%esi
  4020a9:	bf 01 00 00 00       	mov    $0x1,%edi
  4020ae:	b8 00 00 00 00       	mov    $0x0,%eax
  4020b3:	e8 98 ee ff ff       	callq  400f50 <__printf_chk@plt>
  4020b8:	48 89 e2             	mov    %rsp,%rdx
  4020bb:	be 66 3a 40 00       	mov    $0x403a66,%esi
  4020c0:	bf 01 00 00 00       	mov    $0x1,%edi
  4020c5:	b8 00 00 00 00       	mov    $0x0,%eax
  4020ca:	e8 81 ee ff ff       	callq  400f50 <__printf_chk@plt>
  4020cf:	48 8b 84 24 08 40 00 	mov    0x4008(%rsp),%rax
  4020d6:	00 
  4020d7:	64 48 33 04 25 28 00 	xor    %fs:0x28,%rax
  4020de:	00 00 
  4020e0:	74 05                	je     4020e7 <notify_server+0x1ea>
  4020e2:	e8 39 ed ff ff       	callq  400e20 <__stack_chk_fail@plt>
  4020e7:	48 81 c4 10 40 00 00 	add    $0x4010,%rsp
  4020ee:	5b                   	pop    %rbx
  4020ef:	c3                   	retq   

00000000004020f0 <validate>:
  4020f0:	53                   	push   %rbx
  4020f1:	89 fb                	mov    %edi,%ebx
  4020f3:	83 3d 4e 34 20 00 00 	cmpl   $0x0,0x20344e(%rip)        # 605548 <is_checker>
  4020fa:	74 6b                	je     402167 <validate+0x77>
  4020fc:	39 3d 3a 34 20 00    	cmp    %edi,0x20343a(%rip)        # 60553c <vlevel>
  402102:	74 14                	je     402118 <validate+0x28>
  402104:	bf 72 3a 40 00       	mov    $0x403a72,%edi
  402109:	e8 f2 ec ff ff       	callq  400e00 <puts@plt>
  40210e:	b8 00 00 00 00       	mov    $0x0,%eax
  402113:	e8 63 fd ff ff       	callq  401e7b <check_fail>
  402118:	8b 15 1a 34 20 00    	mov    0x20341a(%rip),%edx        # 605538 <check_level>
  40211e:	39 d7                	cmp    %edx,%edi
  402120:	74 20                	je     402142 <validate+0x52>
  402122:	89 f9                	mov    %edi,%ecx
  402124:	be b0 3b 40 00       	mov    $0x403bb0,%esi
  402129:	bf 01 00 00 00       	mov    $0x1,%edi
  40212e:	b8 00 00 00 00       	mov    $0x0,%eax
  402133:	e8 18 ee ff ff       	callq  400f50 <__printf_chk@plt>
  402138:	b8 00 00 00 00       	mov    $0x0,%eax
  40213d:	e8 39 fd ff ff       	callq  401e7b <check_fail>
  402142:	0f be 15 1f 40 20 00 	movsbl 0x20401f(%rip),%edx        # 606168 <target_prefix>
  402149:	41 b8 60 55 60 00    	mov    $0x605560,%r8d
  40214f:	89 f9                	mov    %edi,%ecx
  402151:	be 90 3a 40 00       	mov    $0x403a90,%esi
  402156:	bf 01 00 00 00       	mov    $0x1,%edi
  40215b:	b8 00 00 00 00       	mov    $0x0,%eax
  402160:	e8 eb ed ff ff       	callq  400f50 <__printf_chk@plt>
  402165:	eb 49                	jmp    4021b0 <validate+0xc0>
  402167:	3b 3d cf 33 20 00    	cmp    0x2033cf(%rip),%edi        # 60553c <vlevel>
  40216d:	74 18                	je     402187 <validate+0x97>
  40216f:	bf 72 3a 40 00       	mov    $0x403a72,%edi
  402174:	e8 87 ec ff ff       	callq  400e00 <puts@plt>
  402179:	89 de                	mov    %ebx,%esi
  40217b:	bf 00 00 00 00       	mov    $0x0,%edi
  402180:	e8 78 fd ff ff       	callq  401efd <notify_server>
  402185:	eb 29                	jmp    4021b0 <validate+0xc0>
  402187:	0f be 0d da 3f 20 00 	movsbl 0x203fda(%rip),%ecx        # 606168 <target_prefix>
  40218e:	89 fa                	mov    %edi,%edx
  402190:	be d8 3b 40 00       	mov    $0x403bd8,%esi
  402195:	bf 01 00 00 00       	mov    $0x1,%edi
  40219a:	b8 00 00 00 00       	mov    $0x0,%eax
  40219f:	e8 ac ed ff ff       	callq  400f50 <__printf_chk@plt>
  4021a4:	89 de                	mov    %ebx,%esi
  4021a6:	bf 01 00 00 00       	mov    $0x1,%edi
  4021ab:	e8 4d fd ff ff       	callq  401efd <notify_server>
  4021b0:	5b                   	pop    %rbx
  4021b1:	c3                   	retq   

00000000004021b2 <fail>:
  4021b2:	48 83 ec 08          	sub    $0x8,%rsp
  4021b6:	83 3d 8b 33 20 00 00 	cmpl   $0x0,0x20338b(%rip)        # 605548 <is_checker>
  4021bd:	74 0a                	je     4021c9 <fail+0x17>
  4021bf:	b8 00 00 00 00       	mov    $0x0,%eax
  4021c4:	e8 b2 fc ff ff       	callq  401e7b <check_fail>
  4021c9:	89 fe                	mov    %edi,%esi
  4021cb:	bf 00 00 00 00       	mov    $0x0,%edi
  4021d0:	e8 28 fd ff ff       	callq  401efd <notify_server>
  4021d5:	48 83 c4 08          	add    $0x8,%rsp
  4021d9:	c3                   	retq   

00000000004021da <bushandler>:
  4021da:	48 83 ec 08          	sub    $0x8,%rsp
  4021de:	83 3d 63 33 20 00 00 	cmpl   $0x0,0x203363(%rip)        # 605548 <is_checker>
  4021e5:	74 14                	je     4021fb <bushandler+0x21>
  4021e7:	bf a5 3a 40 00       	mov    $0x403aa5,%edi
  4021ec:	e8 0f ec ff ff       	callq  400e00 <puts@plt>
  4021f1:	b8 00 00 00 00       	mov    $0x0,%eax
  4021f6:	e8 80 fc ff ff       	callq  401e7b <check_fail>
  4021fb:	bf 10 3c 40 00       	mov    $0x403c10,%edi
  402200:	e8 fb eb ff ff       	callq  400e00 <puts@plt>
  402205:	bf af 3a 40 00       	mov    $0x403aaf,%edi
  40220a:	e8 f1 eb ff ff       	callq  400e00 <puts@plt>
  40220f:	be 00 00 00 00       	mov    $0x0,%esi
  402214:	bf 00 00 00 00       	mov    $0x0,%edi
  402219:	e8 df fc ff ff       	callq  401efd <notify_server>
  40221e:	bf 01 00 00 00       	mov    $0x1,%edi
  402223:	e8 78 ed ff ff       	callq  400fa0 <exit@plt>

0000000000402228 <seghandler>:
  402228:	48 83 ec 08          	sub    $0x8,%rsp
  40222c:	83 3d 15 33 20 00 00 	cmpl   $0x0,0x203315(%rip)        # 605548 <is_checker>
  402233:	74 14                	je     402249 <seghandler+0x21>
  402235:	bf c5 3a 40 00       	mov    $0x403ac5,%edi
  40223a:	e8 c1 eb ff ff       	callq  400e00 <puts@plt>
  40223f:	b8 00 00 00 00       	mov    $0x0,%eax
  402244:	e8 32 fc ff ff       	callq  401e7b <check_fail>
  402249:	bf 30 3c 40 00       	mov    $0x403c30,%edi
  40224e:	e8 ad eb ff ff       	callq  400e00 <puts@plt>
  402253:	bf af 3a 40 00       	mov    $0x403aaf,%edi
  402258:	e8 a3 eb ff ff       	callq  400e00 <puts@plt>
  40225d:	be 00 00 00 00       	mov    $0x0,%esi
  402262:	bf 00 00 00 00       	mov    $0x0,%edi
  402267:	e8 91 fc ff ff       	callq  401efd <notify_server>
  40226c:	bf 01 00 00 00       	mov    $0x1,%edi
  402271:	e8 2a ed ff ff       	callq  400fa0 <exit@plt>

0000000000402276 <illegalhandler>:
  402276:	48 83 ec 08          	sub    $0x8,%rsp
  40227a:	83 3d c7 32 20 00 00 	cmpl   $0x0,0x2032c7(%rip)        # 605548 <is_checker>
  402281:	74 14                	je     402297 <illegalhandler+0x21>
  402283:	bf d8 3a 40 00       	mov    $0x403ad8,%edi
  402288:	e8 73 eb ff ff       	callq  400e00 <puts@plt>
  40228d:	b8 00 00 00 00       	mov    $0x0,%eax
  402292:	e8 e4 fb ff ff       	callq  401e7b <check_fail>
  402297:	bf 58 3c 40 00       	mov    $0x403c58,%edi
  40229c:	e8 5f eb ff ff       	callq  400e00 <puts@plt>
  4022a1:	bf af 3a 40 00       	mov    $0x403aaf,%edi
  4022a6:	e8 55 eb ff ff       	callq  400e00 <puts@plt>
  4022ab:	be 00 00 00 00       	mov    $0x0,%esi
  4022b0:	bf 00 00 00 00       	mov    $0x0,%edi
  4022b5:	e8 43 fc ff ff       	callq  401efd <notify_server>
  4022ba:	bf 01 00 00 00       	mov    $0x1,%edi
  4022bf:	e8 dc ec ff ff       	callq  400fa0 <exit@plt>

00000000004022c4 <sigalrmhandler>:
  4022c4:	48 83 ec 08          	sub    $0x8,%rsp
  4022c8:	83 3d 79 32 20 00 00 	cmpl   $0x0,0x203279(%rip)        # 605548 <is_checker>
  4022cf:	74 14                	je     4022e5 <sigalrmhandler+0x21>
  4022d1:	bf ec 3a 40 00       	mov    $0x403aec,%edi
  4022d6:	e8 25 eb ff ff       	callq  400e00 <puts@plt>
  4022db:	b8 00 00 00 00       	mov    $0x0,%eax
  4022e0:	e8 96 fb ff ff       	callq  401e7b <check_fail>
  4022e5:	ba 05 00 00 00       	mov    $0x5,%edx
  4022ea:	be 88 3c 40 00       	mov    $0x403c88,%esi
  4022ef:	bf 01 00 00 00       	mov    $0x1,%edi
  4022f4:	b8 00 00 00 00       	mov    $0x0,%eax
  4022f9:	e8 52 ec ff ff       	callq  400f50 <__printf_chk@plt>
  4022fe:	be 00 00 00 00       	mov    $0x0,%esi
  402303:	bf 00 00 00 00       	mov    $0x0,%edi
  402308:	e8 f0 fb ff ff       	callq  401efd <notify_server>
  40230d:	bf 01 00 00 00       	mov    $0x1,%edi
  402312:	e8 89 ec ff ff       	callq  400fa0 <exit@plt>

0000000000402317 <launch>:
  402317:	55                   	push   %rbp
  402318:	48 89 e5             	mov    %rsp,%rbp
  40231b:	48 83 ec 10          	sub    $0x10,%rsp
  40231f:	48 89 fa             	mov    %rdi,%rdx
  402322:	64 48 8b 04 25 28 00 	mov    %fs:0x28,%rax
  402329:	00 00 
  40232b:	48 89 45 f8          	mov    %rax,-0x8(%rbp)
  40232f:	31 c0                	xor    %eax,%eax
  402331:	48 8d 47 1e          	lea    0x1e(%rdi),%rax
  402335:	48 83 e0 f0          	and    $0xfffffffffffffff0,%rax
  402339:	48 29 c4             	sub    %rax,%rsp
  40233c:	48 8d 7c 24 0f       	lea    0xf(%rsp),%rdi
  402341:	48 83 e7 f0          	and    $0xfffffffffffffff0,%rdi
  402345:	be f4 00 00 00       	mov    $0xf4,%esi
  40234a:	e8 f1 ea ff ff       	callq  400e40 <memset@plt>
  40234f:	48 8b 05 9a 31 20 00 	mov    0x20319a(%rip),%rax        # 6054f0 <stdin@@GLIBC_2.2.5>
  402356:	48 39 05 d3 31 20 00 	cmp    %rax,0x2031d3(%rip)        # 605530 <infile>
  40235d:	75 14                	jne    402373 <launch+0x5c>
  40235f:	be f4 3a 40 00       	mov    $0x403af4,%esi
  402364:	bf 01 00 00 00       	mov    $0x1,%edi
  402369:	b8 00 00 00 00       	mov    $0x0,%eax
  40236e:	e8 dd eb ff ff       	callq  400f50 <__printf_chk@plt>
  402373:	c7 05 bf 31 20 00 00 	movl   $0x0,0x2031bf(%rip)        # 60553c <vlevel>
  40237a:	00 00 00 
  40237d:	b8 00 00 00 00       	mov    $0x0,%eax
  402382:	e8 60 fa ff ff       	callq  401de7 <test>
  402387:	83 3d ba 31 20 00 00 	cmpl   $0x0,0x2031ba(%rip)        # 605548 <is_checker>
  40238e:	74 14                	je     4023a4 <launch+0x8d>
  402390:	bf 01 3b 40 00       	mov    $0x403b01,%edi
  402395:	e8 66 ea ff ff       	callq  400e00 <puts@plt>
  40239a:	b8 00 00 00 00       	mov    $0x0,%eax
  40239f:	e8 d7 fa ff ff       	callq  401e7b <check_fail>
  4023a4:	bf 0c 3b 40 00       	mov    $0x403b0c,%edi
  4023a9:	e8 52 ea ff ff       	callq  400e00 <puts@plt>
  4023ae:	48 8b 45 f8          	mov    -0x8(%rbp),%rax
  4023b2:	64 48 33 04 25 28 00 	xor    %fs:0x28,%rax
  4023b9:	00 00 
  4023bb:	74 05                	je     4023c2 <launch+0xab>
  4023bd:	e8 5e ea ff ff       	callq  400e20 <__stack_chk_fail@plt>
  4023c2:	c9                   	leaveq 
  4023c3:	c3                   	retq   

00000000004023c4 <stable_launch>:
  4023c4:	53                   	push   %rbx
  4023c5:	48 89 3d 5c 31 20 00 	mov    %rdi,0x20315c(%rip)        # 605528 <global_offset>
  4023cc:	41 b9 00 00 00 00    	mov    $0x0,%r9d
  4023d2:	41 b8 00 00 00 00    	mov    $0x0,%r8d
  4023d8:	b9 32 01 00 00       	mov    $0x132,%ecx
  4023dd:	ba 07 00 00 00       	mov    $0x7,%edx
  4023e2:	be 00 00 10 00       	mov    $0x100000,%esi
  4023e7:	bf 00 60 58 55       	mov    $0x55586000,%edi
  4023ec:	e8 3f ea ff ff       	callq  400e30 <mmap@plt>
  4023f1:	48 89 c3             	mov    %rax,%rbx
  4023f4:	48 3d 00 60 58 55    	cmp    $0x55586000,%rax
  4023fa:	74 37                	je     402433 <stable_launch+0x6f>
  4023fc:	be 00 00 10 00       	mov    $0x100000,%esi
  402401:	48 89 c7             	mov    %rax,%rdi
  402404:	e8 37 eb ff ff       	callq  400f40 <munmap@plt>
  402409:	b9 00 60 58 55       	mov    $0x55586000,%ecx
  40240e:	ba c0 3c 40 00       	mov    $0x403cc0,%edx
  402413:	be 01 00 00 00       	mov    $0x1,%esi
  402418:	48 8b 3d e1 30 20 00 	mov    0x2030e1(%rip),%rdi        # 605500 <stderr@@GLIBC_2.2.5>
  40241f:	b8 00 00 00 00       	mov    $0x0,%eax
  402424:	e8 97 eb ff ff       	callq  400fc0 <__fprintf_chk@plt>
  402429:	bf 01 00 00 00       	mov    $0x1,%edi
  40242e:	e8 6d eb ff ff       	callq  400fa0 <exit@plt>
  402433:	48 8d 90 f8 ff 0f 00 	lea    0xffff8(%rax),%rdx
  40243a:	48 89 15 2f 3d 20 00 	mov    %rdx,0x203d2f(%rip)        # 606170 <stack_top>
  402441:	48 89 e0             	mov    %rsp,%rax
  402444:	48 89 d4             	mov    %rdx,%rsp
  402447:	48 89 c2             	mov    %rax,%rdx
  40244a:	48 89 15 cf 30 20 00 	mov    %rdx,0x2030cf(%rip)        # 605520 <global_save_stack>
  402451:	48 8b 3d d0 30 20 00 	mov    0x2030d0(%rip),%rdi        # 605528 <global_offset>
  402458:	e8 ba fe ff ff       	callq  402317 <launch>
  40245d:	48 8b 05 bc 30 20 00 	mov    0x2030bc(%rip),%rax        # 605520 <global_save_stack>
  402464:	48 89 c4             	mov    %rax,%rsp
  402467:	be 00 00 10 00       	mov    $0x100000,%esi
  40246c:	48 89 df             	mov    %rbx,%rdi
  40246f:	e8 cc ea ff ff       	callq  400f40 <munmap@plt>
  402474:	5b                   	pop    %rbx
  402475:	c3                   	retq   

0000000000402476 <rio_readinitb>:
  402476:	89 37                	mov    %esi,(%rdi)
  402478:	c7 47 04 00 00 00 00 	movl   $0x0,0x4(%rdi)
  40247f:	48 8d 47 10          	lea    0x10(%rdi),%rax
  402483:	48 89 47 08          	mov    %rax,0x8(%rdi)
  402487:	c3                   	retq   

0000000000402488 <sigalrm_handler>:
  402488:	48 83 ec 08          	sub    $0x8,%rsp
  40248c:	b9 00 00 00 00       	mov    $0x0,%ecx
  402491:	ba 00 3d 40 00       	mov    $0x403d00,%edx
  402496:	be 01 00 00 00       	mov    $0x1,%esi
  40249b:	48 8b 3d 5e 30 20 00 	mov    0x20305e(%rip),%rdi        # 605500 <stderr@@GLIBC_2.2.5>
  4024a2:	b8 00 00 00 00       	mov    $0x0,%eax
  4024a7:	e8 14 eb ff ff       	callq  400fc0 <__fprintf_chk@plt>
  4024ac:	bf 01 00 00 00       	mov    $0x1,%edi
  4024b1:	e8 ea ea ff ff       	callq  400fa0 <exit@plt>

00000000004024b6 <rio_writen>:
  4024b6:	41 55                	push   %r13
  4024b8:	41 54                	push   %r12
  4024ba:	55                   	push   %rbp
  4024bb:	53                   	push   %rbx
  4024bc:	48 83 ec 08          	sub    $0x8,%rsp
  4024c0:	41 89 fc             	mov    %edi,%r12d
  4024c3:	48 89 f5             	mov    %rsi,%rbp
  4024c6:	49 89 d5             	mov    %rdx,%r13
  4024c9:	48 89 d3             	mov    %rdx,%rbx
  4024cc:	eb 28                	jmp    4024f6 <rio_writen+0x40>
  4024ce:	48 89 da             	mov    %rbx,%rdx
  4024d1:	48 89 ee             	mov    %rbp,%rsi
  4024d4:	44 89 e7             	mov    %r12d,%edi
  4024d7:	e8 34 e9 ff ff       	callq  400e10 <write@plt>
  4024dc:	48 85 c0             	test   %rax,%rax
  4024df:	7f 0f                	jg     4024f0 <rio_writen+0x3a>
  4024e1:	e8 da e8 ff ff       	callq  400dc0 <__errno_location@plt>
  4024e6:	83 38 04             	cmpl   $0x4,(%rax)
  4024e9:	75 15                	jne    402500 <rio_writen+0x4a>
  4024eb:	b8 00 00 00 00       	mov    $0x0,%eax
  4024f0:	48 29 c3             	sub    %rax,%rbx
  4024f3:	48 01 c5             	add    %rax,%rbp
  4024f6:	48 85 db             	test   %rbx,%rbx
  4024f9:	75 d3                	jne    4024ce <rio_writen+0x18>
  4024fb:	4c 89 e8             	mov    %r13,%rax
  4024fe:	eb 07                	jmp    402507 <rio_writen+0x51>
  402500:	48 c7 c0 ff ff ff ff 	mov    $0xffffffffffffffff,%rax
  402507:	48 83 c4 08          	add    $0x8,%rsp
  40250b:	5b                   	pop    %rbx
  40250c:	5d                   	pop    %rbp
  40250d:	41 5c                	pop    %r12
  40250f:	41 5d                	pop    %r13
  402511:	c3                   	retq   

0000000000402512 <rio_read>:
  402512:	41 55                	push   %r13
  402514:	41 54                	push   %r12
  402516:	55                   	push   %rbp
  402517:	53                   	push   %rbx
  402518:	48 83 ec 08          	sub    $0x8,%rsp
  40251c:	48 89 fb             	mov    %rdi,%rbx
  40251f:	49 89 f5             	mov    %rsi,%r13
  402522:	49 89 d4             	mov    %rdx,%r12
  402525:	eb 2e                	jmp    402555 <rio_read+0x43>
  402527:	48 8d 6b 10          	lea    0x10(%rbx),%rbp
  40252b:	8b 3b                	mov    (%rbx),%edi
  40252d:	ba 00 20 00 00       	mov    $0x2000,%edx
  402532:	48 89 ee             	mov    %rbp,%rsi
  402535:	e8 36 e9 ff ff       	callq  400e70 <read@plt>
  40253a:	89 43 04             	mov    %eax,0x4(%rbx)
  40253d:	85 c0                	test   %eax,%eax
  40253f:	79 0c                	jns    40254d <rio_read+0x3b>
  402541:	e8 7a e8 ff ff       	callq  400dc0 <__errno_location@plt>
  402546:	83 38 04             	cmpl   $0x4,(%rax)
  402549:	74 0a                	je     402555 <rio_read+0x43>
  40254b:	eb 37                	jmp    402584 <rio_read+0x72>
  40254d:	85 c0                	test   %eax,%eax
  40254f:	74 3c                	je     40258d <rio_read+0x7b>
  402551:	48 89 6b 08          	mov    %rbp,0x8(%rbx)
  402555:	8b 6b 04             	mov    0x4(%rbx),%ebp
  402558:	85 ed                	test   %ebp,%ebp
  40255a:	7e cb                	jle    402527 <rio_read+0x15>
  40255c:	89 e8                	mov    %ebp,%eax
  40255e:	49 39 c4             	cmp    %rax,%r12
  402561:	77 03                	ja     402566 <rio_read+0x54>
  402563:	44 89 e5             	mov    %r12d,%ebp
  402566:	4c 63 e5             	movslq %ebp,%r12
  402569:	48 8b 73 08          	mov    0x8(%rbx),%rsi
  40256d:	4c 89 e2             	mov    %r12,%rdx
  402570:	4c 89 ef             	mov    %r13,%rdi
  402573:	e8 68 e9 ff ff       	callq  400ee0 <memcpy@plt>
  402578:	4c 01 63 08          	add    %r12,0x8(%rbx)
  40257c:	29 6b 04             	sub    %ebp,0x4(%rbx)
  40257f:	4c 89 e0             	mov    %r12,%rax
  402582:	eb 0e                	jmp    402592 <rio_read+0x80>
  402584:	48 c7 c0 ff ff ff ff 	mov    $0xffffffffffffffff,%rax
  40258b:	eb 05                	jmp    402592 <rio_read+0x80>
  40258d:	b8 00 00 00 00       	mov    $0x0,%eax
  402592:	48 83 c4 08          	add    $0x8,%rsp
  402596:	5b                   	pop    %rbx
  402597:	5d                   	pop    %rbp
  402598:	41 5c                	pop    %r12
  40259a:	41 5d                	pop    %r13
  40259c:	c3                   	retq   

000000000040259d <rio_readlineb>:
  40259d:	41 55                	push   %r13
  40259f:	41 54                	push   %r12
  4025a1:	55                   	push   %rbp
  4025a2:	53                   	push   %rbx
  4025a3:	48 83 ec 18          	sub    $0x18,%rsp
  4025a7:	49 89 fd             	mov    %rdi,%r13
  4025aa:	48 89 f5             	mov    %rsi,%rbp
  4025ad:	49 89 d4             	mov    %rdx,%r12
  4025b0:	64 48 8b 04 25 28 00 	mov    %fs:0x28,%rax
  4025b7:	00 00 
  4025b9:	48 89 44 24 08       	mov    %rax,0x8(%rsp)
  4025be:	31 c0                	xor    %eax,%eax
  4025c0:	bb 01 00 00 00       	mov    $0x1,%ebx
  4025c5:	eb 3f                	jmp    402606 <rio_readlineb+0x69>
  4025c7:	ba 01 00 00 00       	mov    $0x1,%edx
  4025cc:	48 8d 74 24 07       	lea    0x7(%rsp),%rsi
  4025d1:	4c 89 ef             	mov    %r13,%rdi
  4025d4:	e8 39 ff ff ff       	callq  402512 <rio_read>
  4025d9:	83 f8 01             	cmp    $0x1,%eax
  4025dc:	75 15                	jne    4025f3 <rio_readlineb+0x56>
  4025de:	48 8d 45 01          	lea    0x1(%rbp),%rax
  4025e2:	0f b6 54 24 07       	movzbl 0x7(%rsp),%edx
  4025e7:	88 55 00             	mov    %dl,0x0(%rbp)
  4025ea:	80 7c 24 07 0a       	cmpb   $0xa,0x7(%rsp)
  4025ef:	75 0e                	jne    4025ff <rio_readlineb+0x62>
  4025f1:	eb 1a                	jmp    40260d <rio_readlineb+0x70>
  4025f3:	85 c0                	test   %eax,%eax
  4025f5:	75 22                	jne    402619 <rio_readlineb+0x7c>
  4025f7:	48 83 fb 01          	cmp    $0x1,%rbx
  4025fb:	75 13                	jne    402610 <rio_readlineb+0x73>
  4025fd:	eb 23                	jmp    402622 <rio_readlineb+0x85>
  4025ff:	48 83 c3 01          	add    $0x1,%rbx
  402603:	48 89 c5             	mov    %rax,%rbp
  402606:	4c 39 e3             	cmp    %r12,%rbx
  402609:	72 bc                	jb     4025c7 <rio_readlineb+0x2a>
  40260b:	eb 03                	jmp    402610 <rio_readlineb+0x73>
  40260d:	48 89 c5             	mov    %rax,%rbp
  402610:	c6 45 00 00          	movb   $0x0,0x0(%rbp)
  402614:	48 89 d8             	mov    %rbx,%rax
  402617:	eb 0e                	jmp    402627 <rio_readlineb+0x8a>
  402619:	48 c7 c0 ff ff ff ff 	mov    $0xffffffffffffffff,%rax
  402620:	eb 05                	jmp    402627 <rio_readlineb+0x8a>
  402622:	b8 00 00 00 00       	mov    $0x0,%eax
  402627:	48 8b 4c 24 08       	mov    0x8(%rsp),%rcx
  40262c:	64 48 33 0c 25 28 00 	xor    %fs:0x28,%rcx
  402633:	00 00 
  402635:	74 05                	je     40263c <rio_readlineb+0x9f>
  402637:	e8 e4 e7 ff ff       	callq  400e20 <__stack_chk_fail@plt>
  40263c:	48 83 c4 18          	add    $0x18,%rsp
  402640:	5b                   	pop    %rbx
  402641:	5d                   	pop    %rbp
  402642:	41 5c                	pop    %r12
  402644:	41 5d                	pop    %r13
  402646:	c3                   	retq   

0000000000402647 <urlencode>:
  402647:	41 54                	push   %r12
  402649:	55                   	push   %rbp
  40264a:	53                   	push   %rbx
  40264b:	48 83 ec 10          	sub    $0x10,%rsp
  40264f:	48 89 fb             	mov    %rdi,%rbx
  402652:	48 89 f5             	mov    %rsi,%rbp
  402655:	64 48 8b 04 25 28 00 	mov    %fs:0x28,%rax
  40265c:	00 00 
  40265e:	48 89 44 24 08       	mov    %rax,0x8(%rsp)
  402663:	31 c0                	xor    %eax,%eax
  402665:	48 c7 c1 ff ff ff ff 	mov    $0xffffffffffffffff,%rcx
  40266c:	f2 ae                	repnz scas %es:(%rdi),%al
  40266e:	48 f7 d1             	not    %rcx
  402671:	8d 41 ff             	lea    -0x1(%rcx),%eax
  402674:	e9 aa 00 00 00       	jmpq   402723 <urlencode+0xdc>
  402679:	44 0f b6 03          	movzbl (%rbx),%r8d
  40267d:	41 80 f8 2a          	cmp    $0x2a,%r8b
  402681:	0f 94 c2             	sete   %dl
  402684:	41 80 f8 2d          	cmp    $0x2d,%r8b
  402688:	0f 94 c0             	sete   %al
  40268b:	08 c2                	or     %al,%dl
  40268d:	75 24                	jne    4026b3 <urlencode+0x6c>
  40268f:	41 80 f8 2e          	cmp    $0x2e,%r8b
  402693:	74 1e                	je     4026b3 <urlencode+0x6c>
  402695:	41 80 f8 5f          	cmp    $0x5f,%r8b
  402699:	74 18                	je     4026b3 <urlencode+0x6c>
  40269b:	41 8d 40 d0          	lea    -0x30(%r8),%eax
  40269f:	3c 09                	cmp    $0x9,%al
  4026a1:	76 10                	jbe    4026b3 <urlencode+0x6c>
  4026a3:	41 8d 40 bf          	lea    -0x41(%r8),%eax
  4026a7:	3c 19                	cmp    $0x19,%al
  4026a9:	76 08                	jbe    4026b3 <urlencode+0x6c>
  4026ab:	41 8d 40 9f          	lea    -0x61(%r8),%eax
  4026af:	3c 19                	cmp    $0x19,%al
  4026b1:	77 0a                	ja     4026bd <urlencode+0x76>
  4026b3:	44 88 45 00          	mov    %r8b,0x0(%rbp)
  4026b7:	48 8d 6d 01          	lea    0x1(%rbp),%rbp
  4026bb:	eb 5f                	jmp    40271c <urlencode+0xd5>
  4026bd:	41 80 f8 20          	cmp    $0x20,%r8b
  4026c1:	75 0a                	jne    4026cd <urlencode+0x86>
  4026c3:	c6 45 00 2b          	movb   $0x2b,0x0(%rbp)
  4026c7:	48 8d 6d 01          	lea    0x1(%rbp),%rbp
  4026cb:	eb 4f                	jmp    40271c <urlencode+0xd5>
  4026cd:	41 8d 40 e0          	lea    -0x20(%r8),%eax
  4026d1:	3c 5f                	cmp    $0x5f,%al
  4026d3:	0f 96 c2             	setbe  %dl
  4026d6:	41 80 f8 09          	cmp    $0x9,%r8b
  4026da:	0f 94 c0             	sete   %al
  4026dd:	08 c2                	or     %al,%dl
  4026df:	74 50                	je     402731 <urlencode+0xea>
  4026e1:	45 0f b6 c0          	movzbl %r8b,%r8d
  4026e5:	b9 98 3d 40 00       	mov    $0x403d98,%ecx
  4026ea:	ba 08 00 00 00       	mov    $0x8,%edx
  4026ef:	be 01 00 00 00       	mov    $0x1,%esi
  4026f4:	48 89 e7             	mov    %rsp,%rdi
  4026f7:	b8 00 00 00 00       	mov    $0x0,%eax
  4026fc:	e8 df e8 ff ff       	callq  400fe0 <__sprintf_chk@plt>
  402701:	0f b6 04 24          	movzbl (%rsp),%eax
  402705:	88 45 00             	mov    %al,0x0(%rbp)
  402708:	0f b6 44 24 01       	movzbl 0x1(%rsp),%eax
  40270d:	88 45 01             	mov    %al,0x1(%rbp)
  402710:	0f b6 44 24 02       	movzbl 0x2(%rsp),%eax
  402715:	88 45 02             	mov    %al,0x2(%rbp)
  402718:	48 8d 6d 03          	lea    0x3(%rbp),%rbp
  40271c:	48 83 c3 01          	add    $0x1,%rbx
  402720:	44 89 e0             	mov    %r12d,%eax
  402723:	44 8d 60 ff          	lea    -0x1(%rax),%r12d
  402727:	85 c0                	test   %eax,%eax
  402729:	0f 85 4a ff ff ff    	jne    402679 <urlencode+0x32>
  40272f:	eb 05                	jmp    402736 <urlencode+0xef>
  402731:	b8 ff ff ff ff       	mov    $0xffffffff,%eax
  402736:	48 8b 74 24 08       	mov    0x8(%rsp),%rsi
  40273b:	64 48 33 34 25 28 00 	xor    %fs:0x28,%rsi
  402742:	00 00 
  402744:	74 05                	je     40274b <urlencode+0x104>
  402746:	e8 d5 e6 ff ff       	callq  400e20 <__stack_chk_fail@plt>
  40274b:	48 83 c4 10          	add    $0x10,%rsp
  40274f:	5b                   	pop    %rbx
  402750:	5d                   	pop    %rbp
  402751:	41 5c                	pop    %r12
  402753:	c3                   	retq   

0000000000402754 <submitr>:
  402754:	41 57                	push   %r15
  402756:	41 56                	push   %r14
  402758:	41 55                	push   %r13
  40275a:	41 54                	push   %r12
  40275c:	55                   	push   %rbp
  40275d:	53                   	push   %rbx
  40275e:	48 81 ec 58 a0 00 00 	sub    $0xa058,%rsp
  402765:	49 89 fc             	mov    %rdi,%r12
  402768:	89 74 24 04          	mov    %esi,0x4(%rsp)
  40276c:	49 89 d7             	mov    %rdx,%r15
  40276f:	49 89 ce             	mov    %rcx,%r14
  402772:	4c 89 44 24 08       	mov    %r8,0x8(%rsp)
  402777:	4d 89 cd             	mov    %r9,%r13
  40277a:	48 8b 9c 24 90 a0 00 	mov    0xa090(%rsp),%rbx
  402781:	00 
  402782:	64 48 8b 04 25 28 00 	mov    %fs:0x28,%rax
  402789:	00 00 
  40278b:	48 89 84 24 48 a0 00 	mov    %rax,0xa048(%rsp)
  402792:	00 
  402793:	31 c0                	xor    %eax,%eax
  402795:	c7 44 24 1c 00 00 00 	movl   $0x0,0x1c(%rsp)
  40279c:	00 
  40279d:	ba 00 00 00 00       	mov    $0x0,%edx
  4027a2:	be 01 00 00 00       	mov    $0x1,%esi
  4027a7:	bf 02 00 00 00       	mov    $0x2,%edi
  4027ac:	e8 3f e8 ff ff       	callq  400ff0 <socket@plt>
  4027b1:	85 c0                	test   %eax,%eax
  4027b3:	79 4e                	jns    402803 <submitr+0xaf>
  4027b5:	48 b8 45 72 72 6f 72 	movabs $0x43203a726f727245,%rax
  4027bc:	3a 20 43 
  4027bf:	48 89 03             	mov    %rax,(%rbx)
  4027c2:	48 b8 6c 69 65 6e 74 	movabs $0x6e7520746e65696c,%rax
  4027c9:	20 75 6e 
  4027cc:	48 89 43 08          	mov    %rax,0x8(%rbx)
  4027d0:	48 b8 61 62 6c 65 20 	movabs $0x206f7420656c6261,%rax
  4027d7:	74 6f 20 
  4027da:	48 89 43 10          	mov    %rax,0x10(%rbx)
  4027de:	48 b8 63 72 65 61 74 	movabs $0x7320657461657263,%rax
  4027e5:	65 20 73 
  4027e8:	48 89 43 18          	mov    %rax,0x18(%rbx)
  4027ec:	c7 43 20 6f 63 6b 65 	movl   $0x656b636f,0x20(%rbx)
  4027f3:	66 c7 43 24 74 00    	movw   $0x74,0x24(%rbx)
  4027f9:	b8 ff ff ff ff       	mov    $0xffffffff,%eax
  4027fe:	e9 97 06 00 00       	jmpq   402e9a <submitr+0x746>
  402803:	89 c5                	mov    %eax,%ebp
  402805:	4c 89 e7             	mov    %r12,%rdi
  402808:	e8 a3 e6 ff ff       	callq  400eb0 <gethostbyname@plt>
  40280d:	48 85 c0             	test   %rax,%rax
  402810:	75 67                	jne    402879 <submitr+0x125>
  402812:	48 b8 45 72 72 6f 72 	movabs $0x44203a726f727245,%rax
  402819:	3a 20 44 
  40281c:	48 89 03             	mov    %rax,(%rbx)
  40281f:	48 b8 4e 53 20 69 73 	movabs $0x6e7520736920534e,%rax
  402826:	20 75 6e 
  402829:	48 89 43 08          	mov    %rax,0x8(%rbx)
  40282d:	48 b8 61 62 6c 65 20 	movabs $0x206f7420656c6261,%rax
  402834:	74 6f 20 
  402837:	48 89 43 10          	mov    %rax,0x10(%rbx)
  40283b:	48 b8 72 65 73 6f 6c 	movabs $0x2065766c6f736572,%rax
  402842:	76 65 20 
  402845:	48 89 43 18          	mov    %rax,0x18(%rbx)
  402849:	48 b8 73 65 72 76 65 	movabs $0x6120726576726573,%rax
  402850:	72 20 61 
  402853:	48 89 43 20          	mov    %rax,0x20(%rbx)
  402857:	c7 43 28 64 64 72 65 	movl   $0x65726464,0x28(%rbx)
  40285e:	66 c7 43 2c 73 73    	movw   $0x7373,0x2c(%rbx)
  402864:	c6 43 2e 00          	movb   $0x0,0x2e(%rbx)
  402868:	89 ef                	mov    %ebp,%edi
  40286a:	e8 f1 e5 ff ff       	callq  400e60 <close@plt>
  40286f:	b8 ff ff ff ff       	mov    $0xffffffff,%eax
  402874:	e9 21 06 00 00       	jmpq   402e9a <submitr+0x746>
  402879:	48 c7 44 24 20 00 00 	movq   $0x0,0x20(%rsp)
  402880:	00 00 
  402882:	48 c7 44 24 28 00 00 	movq   $0x0,0x28(%rsp)
  402889:	00 00 
  40288b:	66 c7 44 24 20 02 00 	movw   $0x2,0x20(%rsp)
  402892:	48 63 50 14          	movslq 0x14(%rax),%rdx
  402896:	48 8b 40 18          	mov    0x18(%rax),%rax
  40289a:	48 8b 30             	mov    (%rax),%rsi
  40289d:	48 8d 7c 24 24       	lea    0x24(%rsp),%rdi
  4028a2:	b9 0c 00 00 00       	mov    $0xc,%ecx
  4028a7:	e8 14 e6 ff ff       	callq  400ec0 <__memmove_chk@plt>
  4028ac:	0f b7 44 24 04       	movzwl 0x4(%rsp),%eax
  4028b1:	66 c1 c8 08          	ror    $0x8,%ax
  4028b5:	66 89 44 24 22       	mov    %ax,0x22(%rsp)
  4028ba:	ba 10 00 00 00       	mov    $0x10,%edx
  4028bf:	48 8d 74 24 20       	lea    0x20(%rsp),%rsi
  4028c4:	89 ef                	mov    %ebp,%edi
  4028c6:	e8 e5 e6 ff ff       	callq  400fb0 <connect@plt>
  4028cb:	85 c0                	test   %eax,%eax
  4028cd:	79 59                	jns    402928 <submitr+0x1d4>
  4028cf:	48 b8 45 72 72 6f 72 	movabs $0x55203a726f727245,%rax
  4028d6:	3a 20 55 
  4028d9:	48 89 03             	mov    %rax,(%rbx)
  4028dc:	48 b8 6e 61 62 6c 65 	movabs $0x6f7420656c62616e,%rax
  4028e3:	20 74 6f 
  4028e6:	48 89 43 08          	mov    %rax,0x8(%rbx)
  4028ea:	48 b8 20 63 6f 6e 6e 	movabs $0x7463656e6e6f6320,%rax
  4028f1:	65 63 74 
  4028f4:	48 89 43 10          	mov    %rax,0x10(%rbx)
  4028f8:	48 b8 20 74 6f 20 74 	movabs $0x20656874206f7420,%rax
  4028ff:	68 65 20 
  402902:	48 89 43 18          	mov    %rax,0x18(%rbx)
  402906:	c7 43 20 73 65 72 76 	movl   $0x76726573,0x20(%rbx)
  40290d:	66 c7 43 24 65 72    	movw   $0x7265,0x24(%rbx)
  402913:	c6 43 26 00          	movb   $0x0,0x26(%rbx)
  402917:	89 ef                	mov    %ebp,%edi
  402919:	e8 42 e5 ff ff       	callq  400e60 <close@plt>
  40291e:	b8 ff ff ff ff       	mov    $0xffffffff,%eax
  402923:	e9 72 05 00 00       	jmpq   402e9a <submitr+0x746>
  402928:	48 c7 c6 ff ff ff ff 	mov    $0xffffffffffffffff,%rsi
  40292f:	b8 00 00 00 00       	mov    $0x0,%eax
  402934:	48 89 f1             	mov    %rsi,%rcx
  402937:	4c 89 ef             	mov    %r13,%rdi
  40293a:	f2 ae                	repnz scas %es:(%rdi),%al
  40293c:	48 f7 d1             	not    %rcx
  40293f:	48 89 ca             	mov    %rcx,%rdx
  402942:	48 89 f1             	mov    %rsi,%rcx
  402945:	4c 89 ff             	mov    %r15,%rdi
  402948:	f2 ae                	repnz scas %es:(%rdi),%al
  40294a:	48 f7 d1             	not    %rcx
  40294d:	49 89 c8             	mov    %rcx,%r8
  402950:	48 89 f1             	mov    %rsi,%rcx
  402953:	4c 89 f7             	mov    %r14,%rdi
  402956:	f2 ae                	repnz scas %es:(%rdi),%al
  402958:	48 f7 d1             	not    %rcx
  40295b:	4d 8d 44 08 fe       	lea    -0x2(%r8,%rcx,1),%r8
  402960:	48 89 f1             	mov    %rsi,%rcx
  402963:	48 8b 7c 24 08       	mov    0x8(%rsp),%rdi
  402968:	f2 ae                	repnz scas %es:(%rdi),%al
  40296a:	48 89 c8             	mov    %rcx,%rax
  40296d:	48 f7 d0             	not    %rax
  402970:	49 8d 4c 00 ff       	lea    -0x1(%r8,%rax,1),%rcx
  402975:	48 8d 44 52 fd       	lea    -0x3(%rdx,%rdx,2),%rax
  40297a:	48 8d 84 01 80 00 00 	lea    0x80(%rcx,%rax,1),%rax
  402981:	00 
  402982:	48 3d 00 20 00 00    	cmp    $0x2000,%rax
  402988:	76 72                	jbe    4029fc <submitr+0x2a8>
  40298a:	48 b8 45 72 72 6f 72 	movabs $0x52203a726f727245,%rax
  402991:	3a 20 52 
  402994:	48 89 03             	mov    %rax,(%rbx)
  402997:	48 b8 65 73 75 6c 74 	movabs $0x747320746c757365,%rax
  40299e:	20 73 74 
  4029a1:	48 89 43 08          	mov    %rax,0x8(%rbx)
  4029a5:	48 b8 72 69 6e 67 20 	movabs $0x6f6f7420676e6972,%rax
  4029ac:	74 6f 6f 
  4029af:	48 89 43 10          	mov    %rax,0x10(%rbx)
  4029b3:	48 b8 20 6c 61 72 67 	movabs $0x202e656772616c20,%rax
  4029ba:	65 2e 20 
  4029bd:	48 89 43 18          	mov    %rax,0x18(%rbx)
  4029c1:	48 b8 49 6e 63 72 65 	movabs $0x6573616572636e49,%rax
  4029c8:	61 73 65 
  4029cb:	48 89 43 20          	mov    %rax,0x20(%rbx)
  4029cf:	48 b8 20 53 55 42 4d 	movabs $0x5254494d42555320,%rax
  4029d6:	49 54 52 
  4029d9:	48 89 43 28          	mov    %rax,0x28(%rbx)
  4029dd:	48 b8 5f 4d 41 58 42 	movabs $0x46554258414d5f,%rax
  4029e4:	55 46 00 
  4029e7:	48 89 43 30          	mov    %rax,0x30(%rbx)
  4029eb:	89 ef                	mov    %ebp,%edi
  4029ed:	e8 6e e4 ff ff       	callq  400e60 <close@plt>
  4029f2:	b8 ff ff ff ff       	mov    $0xffffffff,%eax
  4029f7:	e9 9e 04 00 00       	jmpq   402e9a <submitr+0x746>
  4029fc:	48 8d b4 24 40 40 00 	lea    0x4040(%rsp),%rsi
  402a03:	00 
  402a04:	b9 00 04 00 00       	mov    $0x400,%ecx
  402a09:	b8 00 00 00 00       	mov    $0x0,%eax
  402a0e:	48 89 f7             	mov    %rsi,%rdi
  402a11:	f3 48 ab             	rep stos %rax,%es:(%rdi)
  402a14:	4c 89 ef             	mov    %r13,%rdi
  402a17:	e8 2b fc ff ff       	callq  402647 <urlencode>
  402a1c:	85 c0                	test   %eax,%eax
  402a1e:	0f 89 8a 00 00 00    	jns    402aae <submitr+0x35a>
  402a24:	48 b8 45 72 72 6f 72 	movabs $0x52203a726f727245,%rax
  402a2b:	3a 20 52 
  402a2e:	48 89 03             	mov    %rax,(%rbx)
  402a31:	48 b8 65 73 75 6c 74 	movabs $0x747320746c757365,%rax
  402a38:	20 73 74 
  402a3b:	48 89 43 08          	mov    %rax,0x8(%rbx)
  402a3f:	48 b8 72 69 6e 67 20 	movabs $0x6e6f6320676e6972,%rax
  402a46:	63 6f 6e 
  402a49:	48 89 43 10          	mov    %rax,0x10(%rbx)
  402a4d:	48 b8 74 61 69 6e 73 	movabs $0x6e6120736e696174,%rax
  402a54:	20 61 6e 
  402a57:	48 89 43 18          	mov    %rax,0x18(%rbx)
  402a5b:	48 b8 20 69 6c 6c 65 	movabs $0x6c6167656c6c6920,%rax
  402a62:	67 61 6c 
  402a65:	48 89 43 20          	mov    %rax,0x20(%rbx)
  402a69:	48 b8 20 6f 72 20 75 	movabs $0x72706e7520726f20,%rax
  402a70:	6e 70 72 
  402a73:	48 89 43 28          	mov    %rax,0x28(%rbx)
  402a77:	48 b8 69 6e 74 61 62 	movabs $0x20656c6261746e69,%rax
  402a7e:	6c 65 20 
  402a81:	48 89 43 30          	mov    %rax,0x30(%rbx)
  402a85:	48 b8 63 68 61 72 61 	movabs $0x6574636172616863,%rax
  402a8c:	63 74 65 
  402a8f:	48 89 43 38          	mov    %rax,0x38(%rbx)
  402a93:	66 c7 43 40 72 2e    	movw   $0x2e72,0x40(%rbx)
  402a99:	c6 43 42 00          	movb   $0x0,0x42(%rbx)
  402a9d:	89 ef                	mov    %ebp,%edi
  402a9f:	e8 bc e3 ff ff       	callq  400e60 <close@plt>
  402aa4:	b8 ff ff ff ff       	mov    $0xffffffff,%eax
  402aa9:	e9 ec 03 00 00       	jmpq   402e9a <submitr+0x746>
  402aae:	4c 8d ac 24 40 20 00 	lea    0x2040(%rsp),%r13
  402ab5:	00 
  402ab6:	41 54                	push   %r12
  402ab8:	48 8d 84 24 48 40 00 	lea    0x4048(%rsp),%rax
  402abf:	00 
  402ac0:	50                   	push   %rax
  402ac1:	4d 89 f9             	mov    %r15,%r9
  402ac4:	4d 89 f0             	mov    %r14,%r8
  402ac7:	b9 28 3d 40 00       	mov    $0x403d28,%ecx
  402acc:	ba 00 20 00 00       	mov    $0x2000,%edx
  402ad1:	be 01 00 00 00       	mov    $0x1,%esi
  402ad6:	4c 89 ef             	mov    %r13,%rdi
  402ad9:	b8 00 00 00 00       	mov    $0x0,%eax
  402ade:	e8 fd e4 ff ff       	callq  400fe0 <__sprintf_chk@plt>
  402ae3:	b8 00 00 00 00       	mov    $0x0,%eax
  402ae8:	48 c7 c1 ff ff ff ff 	mov    $0xffffffffffffffff,%rcx
  402aef:	4c 89 ef             	mov    %r13,%rdi
  402af2:	f2 ae                	repnz scas %es:(%rdi),%al
  402af4:	48 f7 d1             	not    %rcx
  402af7:	48 8d 51 ff          	lea    -0x1(%rcx),%rdx
  402afb:	4c 89 ee             	mov    %r13,%rsi
  402afe:	89 ef                	mov    %ebp,%edi
  402b00:	e8 b1 f9 ff ff       	callq  4024b6 <rio_writen>
  402b05:	48 83 c4 10          	add    $0x10,%rsp
  402b09:	48 85 c0             	test   %rax,%rax
  402b0c:	79 6e                	jns    402b7c <submitr+0x428>
  402b0e:	48 b8 45 72 72 6f 72 	movabs $0x43203a726f727245,%rax
  402b15:	3a 20 43 
  402b18:	48 89 03             	mov    %rax,(%rbx)
  402b1b:	48 b8 6c 69 65 6e 74 	movabs $0x6e7520746e65696c,%rax
  402b22:	20 75 6e 
  402b25:	48 89 43 08          	mov    %rax,0x8(%rbx)
  402b29:	48 b8 61 62 6c 65 20 	movabs $0x206f7420656c6261,%rax
  402b30:	74 6f 20 
  402b33:	48 89 43 10          	mov    %rax,0x10(%rbx)
  402b37:	48 b8 77 72 69 74 65 	movabs $0x6f74206574697277,%rax
  402b3e:	20 74 6f 
  402b41:	48 89 43 18          	mov    %rax,0x18(%rbx)
  402b45:	48 b8 20 74 68 65 20 	movabs $0x7365722065687420,%rax
  402b4c:	72 65 73 
  402b4f:	48 89 43 20          	mov    %rax,0x20(%rbx)
  402b53:	48 b8 75 6c 74 20 73 	movabs $0x7672657320746c75,%rax
  402b5a:	65 72 76 
  402b5d:	48 89 43 28          	mov    %rax,0x28(%rbx)
  402b61:	66 c7 43 30 65 72    	movw   $0x7265,0x30(%rbx)
  402b67:	c6 43 32 00          	movb   $0x0,0x32(%rbx)
  402b6b:	89 ef                	mov    %ebp,%edi
  402b6d:	e8 ee e2 ff ff       	callq  400e60 <close@plt>
  402b72:	b8 ff ff ff ff       	mov    $0xffffffff,%eax
  402b77:	e9 1e 03 00 00       	jmpq   402e9a <submitr+0x746>
  402b7c:	89 ee                	mov    %ebp,%esi
  402b7e:	48 8d 7c 24 30       	lea    0x30(%rsp),%rdi
  402b83:	e8 ee f8 ff ff       	callq  402476 <rio_readinitb>
  402b88:	ba 00 20 00 00       	mov    $0x2000,%edx
  402b8d:	48 8d b4 24 40 20 00 	lea    0x2040(%rsp),%rsi
  402b94:	00 
  402b95:	48 8d 7c 24 30       	lea    0x30(%rsp),%rdi
  402b9a:	e8 fe f9 ff ff       	callq  40259d <rio_readlineb>
  402b9f:	48 85 c0             	test   %rax,%rax
  402ba2:	7f 7d                	jg     402c21 <submitr+0x4cd>
  402ba4:	48 b8 45 72 72 6f 72 	movabs $0x43203a726f727245,%rax
  402bab:	3a 20 43 
  402bae:	48 89 03             	mov    %rax,(%rbx)
  402bb1:	48 b8 6c 69 65 6e 74 	movabs $0x6e7520746e65696c,%rax
  402bb8:	20 75 6e 
  402bbb:	48 89 43 08          	mov    %rax,0x8(%rbx)
  402bbf:	48 b8 61 62 6c 65 20 	movabs $0x206f7420656c6261,%rax
  402bc6:	74 6f 20 
  402bc9:	48 89 43 10          	mov    %rax,0x10(%rbx)
  402bcd:	48 b8 72 65 61 64 20 	movabs $0x7269662064616572,%rax
  402bd4:	66 69 72 
  402bd7:	48 89 43 18          	mov    %rax,0x18(%rbx)
  402bdb:	48 b8 73 74 20 68 65 	movabs $0x6564616568207473,%rax
  402be2:	61 64 65 
  402be5:	48 89 43 20          	mov    %rax,0x20(%rbx)
  402be9:	48 b8 72 20 66 72 6f 	movabs $0x72206d6f72662072,%rax
  402bf0:	6d 20 72 
  402bf3:	48 89 43 28          	mov    %rax,0x28(%rbx)
  402bf7:	48 b8 65 73 75 6c 74 	movabs $0x657320746c757365,%rax
  402bfe:	20 73 65 
  402c01:	48 89 43 30          	mov    %rax,0x30(%rbx)
  402c05:	c7 43 38 72 76 65 72 	movl   $0x72657672,0x38(%rbx)
  402c0c:	c6 43 3c 00          	movb   $0x0,0x3c(%rbx)
  402c10:	89 ef                	mov    %ebp,%edi
  402c12:	e8 49 e2 ff ff       	callq  400e60 <close@plt>
  402c17:	b8 ff ff ff ff       	mov    $0xffffffff,%eax
  402c1c:	e9 79 02 00 00       	jmpq   402e9a <submitr+0x746>
  402c21:	4c 8d 84 24 40 80 00 	lea    0x8040(%rsp),%r8
  402c28:	00 
  402c29:	48 8d 4c 24 1c       	lea    0x1c(%rsp),%rcx
  402c2e:	48 8d 94 24 40 60 00 	lea    0x6040(%rsp),%rdx
  402c35:	00 
  402c36:	be 9f 3d 40 00       	mov    $0x403d9f,%esi
  402c3b:	48 8d bc 24 40 20 00 	lea    0x2040(%rsp),%rdi
  402c42:	00 
  402c43:	b8 00 00 00 00       	mov    $0x0,%eax
  402c48:	e8 e3 e2 ff ff       	callq  400f30 <__isoc99_sscanf@plt>
  402c4d:	e9 95 00 00 00       	jmpq   402ce7 <submitr+0x593>
  402c52:	ba 00 20 00 00       	mov    $0x2000,%edx
  402c57:	48 8d b4 24 40 20 00 	lea    0x2040(%rsp),%rsi
  402c5e:	00 
  402c5f:	48 8d 7c 24 30       	lea    0x30(%rsp),%rdi
  402c64:	e8 34 f9 ff ff       	callq  40259d <rio_readlineb>
  402c69:	48 85 c0             	test   %rax,%rax
  402c6c:	7f 79                	jg     402ce7 <submitr+0x593>
  402c6e:	48 b8 45 72 72 6f 72 	movabs $0x43203a726f727245,%rax
  402c75:	3a 20 43 
  402c78:	48 89 03             	mov    %rax,(%rbx)
  402c7b:	48 b8 6c 69 65 6e 74 	movabs $0x6e7520746e65696c,%rax
  402c82:	20 75 6e 
  402c85:	48 89 43 08          	mov    %rax,0x8(%rbx)
  402c89:	48 b8 61 62 6c 65 20 	movabs $0x206f7420656c6261,%rax
  402c90:	74 6f 20 
  402c93:	48 89 43 10          	mov    %rax,0x10(%rbx)
  402c97:	48 b8 72 65 61 64 20 	movabs $0x6165682064616572,%rax
  402c9e:	68 65 61 
  402ca1:	48 89 43 18          	mov    %rax,0x18(%rbx)
  402ca5:	48 b8 64 65 72 73 20 	movabs $0x6f72662073726564,%rax
  402cac:	66 72 6f 
  402caf:	48 89 43 20          	mov    %rax,0x20(%rbx)
  402cb3:	48 b8 6d 20 74 68 65 	movabs $0x657220656874206d,%rax
  402cba:	20 72 65 
  402cbd:	48 89 43 28          	mov    %rax,0x28(%rbx)
  402cc1:	48 b8 73 75 6c 74 20 	movabs $0x72657320746c7573,%rax
  402cc8:	73 65 72 
  402ccb:	48 89 43 30          	mov    %rax,0x30(%rbx)
  402ccf:	c7 43 38 76 65 72 00 	movl   $0x726576,0x38(%rbx)
  402cd6:	89 ef                	mov    %ebp,%edi
  402cd8:	e8 83 e1 ff ff       	callq  400e60 <close@plt>
  402cdd:	b8 ff ff ff ff       	mov    $0xffffffff,%eax
  402ce2:	e9 b3 01 00 00       	jmpq   402e9a <submitr+0x746>
  402ce7:	0f b6 94 24 40 20 00 	movzbl 0x2040(%rsp),%edx
  402cee:	00 
  402cef:	b8 0d 00 00 00       	mov    $0xd,%eax
  402cf4:	29 d0                	sub    %edx,%eax
  402cf6:	75 1b                	jne    402d13 <submitr+0x5bf>
  402cf8:	0f b6 94 24 41 20 00 	movzbl 0x2041(%rsp),%edx
  402cff:	00 
  402d00:	b8 0a 00 00 00       	mov    $0xa,%eax
  402d05:	29 d0                	sub    %edx,%eax
  402d07:	75 0a                	jne    402d13 <submitr+0x5bf>
  402d09:	0f b6 84 24 42 20 00 	movzbl 0x2042(%rsp),%eax
  402d10:	00 
  402d11:	f7 d8                	neg    %eax
  402d13:	85 c0                	test   %eax,%eax
  402d15:	0f 85 37 ff ff ff    	jne    402c52 <submitr+0x4fe>
  402d1b:	ba 00 20 00 00       	mov    $0x2000,%edx
  402d20:	48 8d b4 24 40 20 00 	lea    0x2040(%rsp),%rsi
  402d27:	00 
  402d28:	48 8d 7c 24 30       	lea    0x30(%rsp),%rdi
  402d2d:	e8 6b f8 ff ff       	callq  40259d <rio_readlineb>
  402d32:	48 85 c0             	test   %rax,%rax
  402d35:	0f 8f 83 00 00 00    	jg     402dbe <submitr+0x66a>
  402d3b:	48 b8 45 72 72 6f 72 	movabs $0x43203a726f727245,%rax
  402d42:	3a 20 43 
  402d45:	48 89 03             	mov    %rax,(%rbx)
  402d48:	48 b8 6c 69 65 6e 74 	movabs $0x6e7520746e65696c,%rax
  402d4f:	20 75 6e 
  402d52:	48 89 43 08          	mov    %rax,0x8(%rbx)
  402d56:	48 b8 61 62 6c 65 20 	movabs $0x206f7420656c6261,%rax
  402d5d:	74 6f 20 
  402d60:	48 89 43 10          	mov    %rax,0x10(%rbx)
  402d64:	48 b8 72 65 61 64 20 	movabs $0x6174732064616572,%rax
  402d6b:	73 74 61 
  402d6e:	48 89 43 18          	mov    %rax,0x18(%rbx)
  402d72:	48 b8 74 75 73 20 6d 	movabs $0x7373656d20737574,%rax
  402d79:	65 73 73 
  402d7c:	48 89 43 20          	mov    %rax,0x20(%rbx)
  402d80:	48 b8 61 67 65 20 66 	movabs $0x6d6f726620656761,%rax
  402d87:	72 6f 6d 
  402d8a:	48 89 43 28          	mov    %rax,0x28(%rbx)
  402d8e:	48 b8 20 72 65 73 75 	movabs $0x20746c7573657220,%rax
  402d95:	6c 74 20 
  402d98:	48 89 43 30          	mov    %rax,0x30(%rbx)
  402d9c:	c7 43 38 73 65 72 76 	movl   $0x76726573,0x38(%rbx)
  402da3:	66 c7 43 3c 65 72    	movw   $0x7265,0x3c(%rbx)
  402da9:	c6 43 3e 00          	movb   $0x0,0x3e(%rbx)
  402dad:	89 ef                	mov    %ebp,%edi
  402daf:	e8 ac e0 ff ff       	callq  400e60 <close@plt>
  402db4:	b8 ff ff ff ff       	mov    $0xffffffff,%eax
  402db9:	e9 dc 00 00 00       	jmpq   402e9a <submitr+0x746>
  402dbe:	44 8b 44 24 1c       	mov    0x1c(%rsp),%r8d
  402dc3:	41 81 f8 c8 00 00 00 	cmp    $0xc8,%r8d
  402dca:	74 37                	je     402e03 <submitr+0x6af>
  402dcc:	4c 8d 8c 24 40 80 00 	lea    0x8040(%rsp),%r9
  402dd3:	00 
  402dd4:	b9 68 3d 40 00       	mov    $0x403d68,%ecx
  402dd9:	48 c7 c2 ff ff ff ff 	mov    $0xffffffffffffffff,%rdx
  402de0:	be 01 00 00 00       	mov    $0x1,%esi
  402de5:	48 89 df             	mov    %rbx,%rdi
  402de8:	b8 00 00 00 00       	mov    $0x0,%eax
  402ded:	e8 ee e1 ff ff       	callq  400fe0 <__sprintf_chk@plt>
  402df2:	89 ef                	mov    %ebp,%edi
  402df4:	e8 67 e0 ff ff       	callq  400e60 <close@plt>
  402df9:	b8 ff ff ff ff       	mov    $0xffffffff,%eax
  402dfe:	e9 97 00 00 00       	jmpq   402e9a <submitr+0x746>
  402e03:	48 8d b4 24 40 20 00 	lea    0x2040(%rsp),%rsi
  402e0a:	00 
  402e0b:	48 89 df             	mov    %rbx,%rdi
  402e0e:	e8 dd df ff ff       	callq  400df0 <strcpy@plt>
  402e13:	89 ef                	mov    %ebp,%edi
  402e15:	e8 46 e0 ff ff       	callq  400e60 <close@plt>
  402e1a:	0f b6 03             	movzbl (%rbx),%eax
  402e1d:	ba 4f 00 00 00       	mov    $0x4f,%edx
  402e22:	29 c2                	sub    %eax,%edx
  402e24:	75 22                	jne    402e48 <submitr+0x6f4>
  402e26:	0f b6 4b 01          	movzbl 0x1(%rbx),%ecx
  402e2a:	b8 4b 00 00 00       	mov    $0x4b,%eax
  402e2f:	29 c8                	sub    %ecx,%eax
  402e31:	75 17                	jne    402e4a <submitr+0x6f6>
  402e33:	0f b6 4b 02          	movzbl 0x2(%rbx),%ecx
  402e37:	b8 0a 00 00 00       	mov    $0xa,%eax
  402e3c:	29 c8                	sub    %ecx,%eax
  402e3e:	75 0a                	jne    402e4a <submitr+0x6f6>
  402e40:	0f b6 43 03          	movzbl 0x3(%rbx),%eax
  402e44:	f7 d8                	neg    %eax
  402e46:	eb 02                	jmp    402e4a <submitr+0x6f6>
  402e48:	89 d0                	mov    %edx,%eax
  402e4a:	85 c0                	test   %eax,%eax
  402e4c:	74 40                	je     402e8e <submitr+0x73a>
  402e4e:	bf b0 3d 40 00       	mov    $0x403db0,%edi
  402e53:	b9 05 00 00 00       	mov    $0x5,%ecx
  402e58:	48 89 de             	mov    %rbx,%rsi
  402e5b:	f3 a6                	repz cmpsb %es:(%rdi),%ds:(%rsi)
  402e5d:	0f 97 c0             	seta   %al
  402e60:	0f 92 c1             	setb   %cl
  402e63:	29 c8                	sub    %ecx,%eax
  402e65:	0f be c0             	movsbl %al,%eax
  402e68:	85 c0                	test   %eax,%eax
  402e6a:	74 2e                	je     402e9a <submitr+0x746>
  402e6c:	85 d2                	test   %edx,%edx
  402e6e:	75 13                	jne    402e83 <submitr+0x72f>
  402e70:	0f b6 43 01          	movzbl 0x1(%rbx),%eax
  402e74:	ba 4b 00 00 00       	mov    $0x4b,%edx
  402e79:	29 c2                	sub    %eax,%edx
  402e7b:	75 06                	jne    402e83 <submitr+0x72f>
  402e7d:	0f b6 53 02          	movzbl 0x2(%rbx),%edx
  402e81:	f7 da                	neg    %edx
  402e83:	85 d2                	test   %edx,%edx
  402e85:	75 0e                	jne    402e95 <submitr+0x741>
  402e87:	b8 00 00 00 00       	mov    $0x0,%eax
  402e8c:	eb 0c                	jmp    402e9a <submitr+0x746>
  402e8e:	b8 00 00 00 00       	mov    $0x0,%eax
  402e93:	eb 05                	jmp    402e9a <submitr+0x746>
  402e95:	b8 ff ff ff ff       	mov    $0xffffffff,%eax
  402e9a:	48 8b 9c 24 48 a0 00 	mov    0xa048(%rsp),%rbx
  402ea1:	00 
  402ea2:	64 48 33 1c 25 28 00 	xor    %fs:0x28,%rbx
  402ea9:	00 00 
  402eab:	74 05                	je     402eb2 <submitr+0x75e>
  402ead:	e8 6e df ff ff       	callq  400e20 <__stack_chk_fail@plt>
  402eb2:	48 81 c4 58 a0 00 00 	add    $0xa058,%rsp
  402eb9:	5b                   	pop    %rbx
  402eba:	5d                   	pop    %rbp
  402ebb:	41 5c                	pop    %r12
  402ebd:	41 5d                	pop    %r13
  402ebf:	41 5e                	pop    %r14
  402ec1:	41 5f                	pop    %r15
  402ec3:	c3                   	retq   

0000000000402ec4 <init_timeout>:
  402ec4:	85 ff                	test   %edi,%edi
  402ec6:	74 23                	je     402eeb <init_timeout+0x27>
  402ec8:	53                   	push   %rbx
  402ec9:	89 fb                	mov    %edi,%ebx
  402ecb:	85 ff                	test   %edi,%edi
  402ecd:	79 05                	jns    402ed4 <init_timeout+0x10>
  402ecf:	bb 00 00 00 00       	mov    $0x0,%ebx
  402ed4:	be 88 24 40 00       	mov    $0x402488,%esi
  402ed9:	bf 0e 00 00 00       	mov    $0xe,%edi
  402ede:	e8 bd df ff ff       	callq  400ea0 <signal@plt>
  402ee3:	89 df                	mov    %ebx,%edi
  402ee5:	e8 66 df ff ff       	callq  400e50 <alarm@plt>
  402eea:	5b                   	pop    %rbx
  402eeb:	f3 c3                	repz retq 

0000000000402eed <init_driver>:
  402eed:	55                   	push   %rbp
  402eee:	53                   	push   %rbx
  402eef:	48 83 ec 28          	sub    $0x28,%rsp
  402ef3:	48 89 fd             	mov    %rdi,%rbp
  402ef6:	64 48 8b 04 25 28 00 	mov    %fs:0x28,%rax
  402efd:	00 00 
  402eff:	48 89 44 24 18       	mov    %rax,0x18(%rsp)
  402f04:	31 c0                	xor    %eax,%eax
  402f06:	be 01 00 00 00       	mov    $0x1,%esi
  402f0b:	bf 0d 00 00 00       	mov    $0xd,%edi
  402f10:	e8 8b df ff ff       	callq  400ea0 <signal@plt>
  402f15:	be 01 00 00 00       	mov    $0x1,%esi
  402f1a:	bf 1d 00 00 00       	mov    $0x1d,%edi
  402f1f:	e8 7c df ff ff       	callq  400ea0 <signal@plt>
  402f24:	be 01 00 00 00       	mov    $0x1,%esi
  402f29:	bf 1d 00 00 00       	mov    $0x1d,%edi
  402f2e:	e8 6d df ff ff       	callq  400ea0 <signal@plt>
  402f33:	ba 00 00 00 00       	mov    $0x0,%edx
  402f38:	be 01 00 00 00       	mov    $0x1,%esi
  402f3d:	bf 02 00 00 00       	mov    $0x2,%edi
  402f42:	e8 a9 e0 ff ff       	callq  400ff0 <socket@plt>
  402f47:	85 c0                	test   %eax,%eax
  402f49:	79 4f                	jns    402f9a <init_driver+0xad>
  402f4b:	48 b8 45 72 72 6f 72 	movabs $0x43203a726f727245,%rax
  402f52:	3a 20 43 
  402f55:	48 89 45 00          	mov    %rax,0x0(%rbp)
  402f59:	48 b8 6c 69 65 6e 74 	movabs $0x6e7520746e65696c,%rax
  402f60:	20 75 6e 
  402f63:	48 89 45 08          	mov    %rax,0x8(%rbp)
  402f67:	48 b8 61 62 6c 65 20 	movabs $0x206f7420656c6261,%rax
  402f6e:	74 6f 20 
  402f71:	48 89 45 10          	mov    %rax,0x10(%rbp)
  402f75:	48 b8 63 72 65 61 74 	movabs $0x7320657461657263,%rax
  402f7c:	65 20 73 
  402f7f:	48 89 45 18          	mov    %rax,0x18(%rbp)
  402f83:	c7 45 20 6f 63 6b 65 	movl   $0x656b636f,0x20(%rbp)
  402f8a:	66 c7 45 24 74 00    	movw   $0x74,0x24(%rbp)
  402f90:	b8 ff ff ff ff       	mov    $0xffffffff,%eax
  402f95:	e9 2a 01 00 00       	jmpq   4030c4 <init_driver+0x1d7>
  402f9a:	89 c3                	mov    %eax,%ebx
  402f9c:	bf b5 3d 40 00       	mov    $0x403db5,%edi
  402fa1:	e8 0a df ff ff       	callq  400eb0 <gethostbyname@plt>
  402fa6:	48 85 c0             	test   %rax,%rax
  402fa9:	75 68                	jne    403013 <init_driver+0x126>
  402fab:	48 b8 45 72 72 6f 72 	movabs $0x44203a726f727245,%rax
  402fb2:	3a 20 44 
  402fb5:	48 89 45 00          	mov    %rax,0x0(%rbp)
  402fb9:	48 b8 4e 53 20 69 73 	movabs $0x6e7520736920534e,%rax
  402fc0:	20 75 6e 
  402fc3:	48 89 45 08          	mov    %rax,0x8(%rbp)
  402fc7:	48 b8 61 62 6c 65 20 	movabs $0x206f7420656c6261,%rax
  402fce:	74 6f 20 
  402fd1:	48 89 45 10          	mov    %rax,0x10(%rbp)
  402fd5:	48 b8 72 65 73 6f 6c 	movabs $0x2065766c6f736572,%rax
  402fdc:	76 65 20 
  402fdf:	48 89 45 18          	mov    %rax,0x18(%rbp)
  402fe3:	48 b8 73 65 72 76 65 	movabs $0x6120726576726573,%rax
  402fea:	72 20 61 
  402fed:	48 89 45 20          	mov    %rax,0x20(%rbp)
  402ff1:	c7 45 28 64 64 72 65 	movl   $0x65726464,0x28(%rbp)
  402ff8:	66 c7 45 2c 73 73    	movw   $0x7373,0x2c(%rbp)
  402ffe:	c6 45 2e 00          	movb   $0x0,0x2e(%rbp)
  403002:	89 df                	mov    %ebx,%edi
  403004:	e8 57 de ff ff       	callq  400e60 <close@plt>
  403009:	b8 ff ff ff ff       	mov    $0xffffffff,%eax
  40300e:	e9 b1 00 00 00       	jmpq   4030c4 <init_driver+0x1d7>
  403013:	48 c7 04 24 00 00 00 	movq   $0x0,(%rsp)
  40301a:	00 
  40301b:	48 c7 44 24 08 00 00 	movq   $0x0,0x8(%rsp)
  403022:	00 00 
  403024:	66 c7 04 24 02 00    	movw   $0x2,(%rsp)
  40302a:	48 63 50 14          	movslq 0x14(%rax),%rdx
  40302e:	48 8b 40 18          	mov    0x18(%rax),%rax
  403032:	48 8b 30             	mov    (%rax),%rsi
  403035:	48 8d 7c 24 04       	lea    0x4(%rsp),%rdi
  40303a:	b9 0c 00 00 00       	mov    $0xc,%ecx
  40303f:	e8 7c de ff ff       	callq  400ec0 <__memmove_chk@plt>
  403044:	66 c7 44 24 02 3b 6e 	movw   $0x6e3b,0x2(%rsp)
  40304b:	ba 10 00 00 00       	mov    $0x10,%edx
  403050:	48 89 e6             	mov    %rsp,%rsi
  403053:	89 df                	mov    %ebx,%edi
  403055:	e8 56 df ff ff       	callq  400fb0 <connect@plt>
  40305a:	85 c0                	test   %eax,%eax
  40305c:	79 50                	jns    4030ae <init_driver+0x1c1>
  40305e:	48 b8 45 72 72 6f 72 	movabs $0x55203a726f727245,%rax
  403065:	3a 20 55 
  403068:	48 89 45 00          	mov    %rax,0x0(%rbp)
  40306c:	48 b8 6e 61 62 6c 65 	movabs $0x6f7420656c62616e,%rax
  403073:	20 74 6f 
  403076:	48 89 45 08          	mov    %rax,0x8(%rbp)
  40307a:	48 b8 20 63 6f 6e 6e 	movabs $0x7463656e6e6f6320,%rax
  403081:	65 63 74 
  403084:	48 89 45 10          	mov    %rax,0x10(%rbp)
  403088:	48 b8 20 74 6f 20 73 	movabs $0x76726573206f7420,%rax
  40308f:	65 72 76 
  403092:	48 89 45 18          	mov    %rax,0x18(%rbp)
  403096:	66 c7 45 20 65 72    	movw   $0x7265,0x20(%rbp)
  40309c:	c6 45 22 00          	movb   $0x0,0x22(%rbp)
  4030a0:	89 df                	mov    %ebx,%edi
  4030a2:	e8 b9 dd ff ff       	callq  400e60 <close@plt>
  4030a7:	b8 ff ff ff ff       	mov    $0xffffffff,%eax
  4030ac:	eb 16                	jmp    4030c4 <init_driver+0x1d7>
  4030ae:	89 df                	mov    %ebx,%edi
  4030b0:	e8 ab dd ff ff       	callq  400e60 <close@plt>
  4030b5:	66 c7 45 00 4f 4b    	movw   $0x4b4f,0x0(%rbp)
  4030bb:	c6 45 02 00          	movb   $0x0,0x2(%rbp)
  4030bf:	b8 00 00 00 00       	mov    $0x0,%eax
  4030c4:	48 8b 4c 24 18       	mov    0x18(%rsp),%rcx
  4030c9:	64 48 33 0c 25 28 00 	xor    %fs:0x28,%rcx
  4030d0:	00 00 
  4030d2:	74 05                	je     4030d9 <init_driver+0x1ec>
  4030d4:	e8 47 dd ff ff       	callq  400e20 <__stack_chk_fail@plt>
  4030d9:	48 83 c4 28          	add    $0x28,%rsp
  4030dd:	5b                   	pop    %rbx
  4030de:	5d                   	pop    %rbp
  4030df:	c3                   	retq   

00000000004030e0 <driver_post>:
  4030e0:	53                   	push   %rbx
  4030e1:	4c 89 cb             	mov    %r9,%rbx
  4030e4:	45 85 c0             	test   %r8d,%r8d
  4030e7:	74 27                	je     403110 <driver_post+0x30>
  4030e9:	48 89 ca             	mov    %rcx,%rdx
  4030ec:	be c4 3d 40 00       	mov    $0x403dc4,%esi
  4030f1:	bf 01 00 00 00       	mov    $0x1,%edi
  4030f6:	b8 00 00 00 00       	mov    $0x0,%eax
  4030fb:	e8 50 de ff ff       	callq  400f50 <__printf_chk@plt>
  403100:	66 c7 03 4f 4b       	movw   $0x4b4f,(%rbx)
  403105:	c6 43 02 00          	movb   $0x0,0x2(%rbx)
  403109:	b8 00 00 00 00       	mov    $0x0,%eax
  40310e:	eb 3f                	jmp    40314f <driver_post+0x6f>
  403110:	48 85 ff             	test   %rdi,%rdi
  403113:	74 2c                	je     403141 <driver_post+0x61>
  403115:	80 3f 00             	cmpb   $0x0,(%rdi)
  403118:	74 27                	je     403141 <driver_post+0x61>
  40311a:	48 83 ec 08          	sub    $0x8,%rsp
  40311e:	41 51                	push   %r9
  403120:	49 89 c9             	mov    %rcx,%r9
  403123:	49 89 d0             	mov    %rdx,%r8
  403126:	48 89 f9             	mov    %rdi,%rcx
  403129:	48 89 f2             	mov    %rsi,%rdx
  40312c:	be 6e 3b 00 00       	mov    $0x3b6e,%esi
  403131:	bf b5 3d 40 00       	mov    $0x403db5,%edi
  403136:	e8 19 f6 ff ff       	callq  402754 <submitr>
  40313b:	48 83 c4 10          	add    $0x10,%rsp
  40313f:	eb 0e                	jmp    40314f <driver_post+0x6f>
  403141:	66 c7 03 4f 4b       	movw   $0x4b4f,(%rbx)
  403146:	c6 43 02 00          	movb   $0x0,0x2(%rbx)
  40314a:	b8 00 00 00 00       	mov    $0x0,%eax
  40314f:	5b                   	pop    %rbx
  403150:	c3                   	retq   

0000000000403151 <check>:
  403151:	89 f8                	mov    %edi,%eax
  403153:	c1 e8 1c             	shr    $0x1c,%eax
  403156:	85 c0                	test   %eax,%eax
  403158:	74 1d                	je     403177 <check+0x26>
  40315a:	b9 00 00 00 00       	mov    $0x0,%ecx
  40315f:	eb 0b                	jmp    40316c <check+0x1b>
  403161:	89 f8                	mov    %edi,%eax
  403163:	d3 e8                	shr    %cl,%eax
  403165:	3c 0a                	cmp    $0xa,%al
  403167:	74 14                	je     40317d <check+0x2c>
  403169:	83 c1 08             	add    $0x8,%ecx
  40316c:	83 f9 1f             	cmp    $0x1f,%ecx
  40316f:	7e f0                	jle    403161 <check+0x10>
  403171:	b8 01 00 00 00       	mov    $0x1,%eax
  403176:	c3                   	retq   
  403177:	b8 00 00 00 00       	mov    $0x0,%eax
  40317c:	c3                   	retq   
  40317d:	b8 00 00 00 00       	mov    $0x0,%eax
  403182:	c3                   	retq   

0000000000403183 <gencookie>:
  403183:	53                   	push   %rbx
  403184:	83 c7 01             	add    $0x1,%edi
  403187:	e8 44 dc ff ff       	callq  400dd0 <srandom@plt>
  40318c:	e8 6f dd ff ff       	callq  400f00 <random@plt>
  403191:	89 c3                	mov    %eax,%ebx
  403193:	89 c7                	mov    %eax,%edi
  403195:	e8 b7 ff ff ff       	callq  403151 <check>
  40319a:	85 c0                	test   %eax,%eax
  40319c:	74 ee                	je     40318c <gencookie+0x9>
  40319e:	89 d8                	mov    %ebx,%eax
  4031a0:	5b                   	pop    %rbx
  4031a1:	c3                   	retq   
  4031a2:	66 2e 0f 1f 84 00 00 	nopw   %cs:0x0(%rax,%rax,1)
  4031a9:	00 00 00 
  4031ac:	0f 1f 40 00          	nopl   0x0(%rax)

00000000004031b0 <__libc_csu_init>:
  4031b0:	41 57                	push   %r15
  4031b2:	41 56                	push   %r14
  4031b4:	41 89 ff             	mov    %edi,%r15d
  4031b7:	41 55                	push   %r13
  4031b9:	41 54                	push   %r12
  4031bb:	4c 8d 25 4e 1c 20 00 	lea    0x201c4e(%rip),%r12        # 604e10 <__frame_dummy_init_array_entry>
  4031c2:	55                   	push   %rbp
  4031c3:	48 8d 2d 4e 1c 20 00 	lea    0x201c4e(%rip),%rbp        # 604e18 <__init_array_end>
  4031ca:	53                   	push   %rbx
  4031cb:	49 89 f6             	mov    %rsi,%r14
  4031ce:	49 89 d5             	mov    %rdx,%r13
  4031d1:	4c 29 e5             	sub    %r12,%rbp
  4031d4:	48 83 ec 08          	sub    $0x8,%rsp
  4031d8:	48 c1 fd 03          	sar    $0x3,%rbp
  4031dc:	e8 87 db ff ff       	callq  400d68 <_init>
  4031e1:	48 85 ed             	test   %rbp,%rbp
  4031e4:	74 20                	je     403206 <__libc_csu_init+0x56>
  4031e6:	31 db                	xor    %ebx,%ebx
  4031e8:	0f 1f 84 00 00 00 00 	nopl   0x0(%rax,%rax,1)
  4031ef:	00 
  4031f0:	4c 89 ea             	mov    %r13,%rdx
  4031f3:	4c 89 f6             	mov    %r14,%rsi
  4031f6:	44 89 ff             	mov    %r15d,%edi
  4031f9:	41 ff 14 dc          	callq  *(%r12,%rbx,8)
  4031fd:	48 83 c3 01          	add    $0x1,%rbx
  403201:	48 39 eb             	cmp    %rbp,%rbx
  403204:	75 ea                	jne    4031f0 <__libc_csu_init+0x40>
  403206:	48 83 c4 08          	add    $0x8,%rsp
  40320a:	5b                   	pop    %rbx
  40320b:	5d                   	pop    %rbp
  40320c:	41 5c                	pop    %r12
  40320e:	41 5d                	pop    %r13
  403210:	41 5e                	pop    %r14
  403212:	41 5f                	pop    %r15
  403214:	c3                   	retq   
  403215:	90                   	nop
  403216:	66 2e 0f 1f 84 00 00 	nopw   %cs:0x0(%rax,%rax,1)
  40321d:	00 00 00 

0000000000403220 <__libc_csu_fini>:
  403220:	f3 c3                	repz retq 

Disassembly of section .fini:

0000000000403224 <_fini>:
  403224:	48 83 ec 08          	sub    $0x8,%rsp
  403228:	48 83 c4 08          	add    $0x8,%rsp
  40322c:	c3                   	retq   
