
rtarget:     file format elf64-x86-64


Disassembly of section .init:

0000000000400d68 <_init>:
  400d68:	48 83 ec 08          	sub    $0x8,%rsp
  400d6c:	48 8b 05 85 42 20 00 	mov    0x204285(%rip),%rax        # 604ff8 <_DYNAMIC+0x1d0>
  400d73:	48 85 c0             	test   %rax,%rax
  400d76:	74 05                	je     400d7d <_init+0x15>
  400d78:	e8 83 02 00 00       	callq  401000 <socket@plt+0x10>
  400d7d:	48 83 c4 08          	add    $0x8,%rsp
  400d81:	c3                   	retq   

Disassembly of section .plt:

0000000000400d90 <putchar@plt-0x10>:
  400d90:	ff 35 72 42 20 00    	pushq  0x204272(%rip)        # 605008 <_GLOBAL_OFFSET_TABLE_+0x8>
  400d96:	ff 25 74 42 20 00    	jmpq   *0x204274(%rip)        # 605010 <_GLOBAL_OFFSET_TABLE_+0x10>
  400d9c:	0f 1f 40 00          	nopl   0x0(%rax)

0000000000400da0 <putchar@plt>:
  400da0:	ff 25 72 42 20 00    	jmpq   *0x204272(%rip)        # 605018 <_GLOBAL_OFFSET_TABLE_+0x18>
  400da6:	68 00 00 00 00       	pushq  $0x0
  400dab:	e9 e0 ff ff ff       	jmpq   400d90 <_init+0x28>

0000000000400db0 <strcasecmp@plt>:
  400db0:	ff 25 6a 42 20 00    	jmpq   *0x20426a(%rip)        # 605020 <_GLOBAL_OFFSET_TABLE_+0x20>
  400db6:	68 01 00 00 00       	pushq  $0x1
  400dbb:	e9 d0 ff ff ff       	jmpq   400d90 <_init+0x28>

0000000000400dc0 <__errno_location@plt>:
  400dc0:	ff 25 62 42 20 00    	jmpq   *0x204262(%rip)        # 605028 <_GLOBAL_OFFSET_TABLE_+0x28>
  400dc6:	68 02 00 00 00       	pushq  $0x2
  400dcb:	e9 c0 ff ff ff       	jmpq   400d90 <_init+0x28>

0000000000400dd0 <srandom@plt>:
  400dd0:	ff 25 5a 42 20 00    	jmpq   *0x20425a(%rip)        # 605030 <_GLOBAL_OFFSET_TABLE_+0x30>
  400dd6:	68 03 00 00 00       	pushq  $0x3
  400ddb:	e9 b0 ff ff ff       	jmpq   400d90 <_init+0x28>

0000000000400de0 <strncmp@plt>:
  400de0:	ff 25 52 42 20 00    	jmpq   *0x204252(%rip)        # 605038 <_GLOBAL_OFFSET_TABLE_+0x38>
  400de6:	68 04 00 00 00       	pushq  $0x4
  400deb:	e9 a0 ff ff ff       	jmpq   400d90 <_init+0x28>

0000000000400df0 <strcpy@plt>:
  400df0:	ff 25 4a 42 20 00    	jmpq   *0x20424a(%rip)        # 605040 <_GLOBAL_OFFSET_TABLE_+0x40>
  400df6:	68 05 00 00 00       	pushq  $0x5
  400dfb:	e9 90 ff ff ff       	jmpq   400d90 <_init+0x28>

0000000000400e00 <puts@plt>:
  400e00:	ff 25 42 42 20 00    	jmpq   *0x204242(%rip)        # 605048 <_GLOBAL_OFFSET_TABLE_+0x48>
  400e06:	68 06 00 00 00       	pushq  $0x6
  400e0b:	e9 80 ff ff ff       	jmpq   400d90 <_init+0x28>

0000000000400e10 <write@plt>:
  400e10:	ff 25 3a 42 20 00    	jmpq   *0x20423a(%rip)        # 605050 <_GLOBAL_OFFSET_TABLE_+0x50>
  400e16:	68 07 00 00 00       	pushq  $0x7
  400e1b:	e9 70 ff ff ff       	jmpq   400d90 <_init+0x28>

0000000000400e20 <__stack_chk_fail@plt>:
  400e20:	ff 25 32 42 20 00    	jmpq   *0x204232(%rip)        # 605058 <_GLOBAL_OFFSET_TABLE_+0x58>
  400e26:	68 08 00 00 00       	pushq  $0x8
  400e2b:	e9 60 ff ff ff       	jmpq   400d90 <_init+0x28>

0000000000400e30 <mmap@plt>:
  400e30:	ff 25 2a 42 20 00    	jmpq   *0x20422a(%rip)        # 605060 <_GLOBAL_OFFSET_TABLE_+0x60>
  400e36:	68 09 00 00 00       	pushq  $0x9
  400e3b:	e9 50 ff ff ff       	jmpq   400d90 <_init+0x28>

0000000000400e40 <memset@plt>:
  400e40:	ff 25 22 42 20 00    	jmpq   *0x204222(%rip)        # 605068 <_GLOBAL_OFFSET_TABLE_+0x68>
  400e46:	68 0a 00 00 00       	pushq  $0xa
  400e4b:	e9 40 ff ff ff       	jmpq   400d90 <_init+0x28>

0000000000400e50 <alarm@plt>:
  400e50:	ff 25 1a 42 20 00    	jmpq   *0x20421a(%rip)        # 605070 <_GLOBAL_OFFSET_TABLE_+0x70>
  400e56:	68 0b 00 00 00       	pushq  $0xb
  400e5b:	e9 30 ff ff ff       	jmpq   400d90 <_init+0x28>

0000000000400e60 <close@plt>:
  400e60:	ff 25 12 42 20 00    	jmpq   *0x204212(%rip)        # 605078 <_GLOBAL_OFFSET_TABLE_+0x78>
  400e66:	68 0c 00 00 00       	pushq  $0xc
  400e6b:	e9 20 ff ff ff       	jmpq   400d90 <_init+0x28>

0000000000400e70 <read@plt>:
  400e70:	ff 25 0a 42 20 00    	jmpq   *0x20420a(%rip)        # 605080 <_GLOBAL_OFFSET_TABLE_+0x80>
  400e76:	68 0d 00 00 00       	pushq  $0xd
  400e7b:	e9 10 ff ff ff       	jmpq   400d90 <_init+0x28>

0000000000400e80 <__libc_start_main@plt>:
  400e80:	ff 25 02 42 20 00    	jmpq   *0x204202(%rip)        # 605088 <_GLOBAL_OFFSET_TABLE_+0x88>
  400e86:	68 0e 00 00 00       	pushq  $0xe
  400e8b:	e9 00 ff ff ff       	jmpq   400d90 <_init+0x28>

0000000000400e90 <srand@plt>:
  400e90:	ff 25 fa 41 20 00    	jmpq   *0x2041fa(%rip)        # 605090 <_GLOBAL_OFFSET_TABLE_+0x90>
  400e96:	68 0f 00 00 00       	pushq  $0xf
  400e9b:	e9 f0 fe ff ff       	jmpq   400d90 <_init+0x28>

0000000000400ea0 <signal@plt>:
  400ea0:	ff 25 f2 41 20 00    	jmpq   *0x2041f2(%rip)        # 605098 <_GLOBAL_OFFSET_TABLE_+0x98>
  400ea6:	68 10 00 00 00       	pushq  $0x10
  400eab:	e9 e0 fe ff ff       	jmpq   400d90 <_init+0x28>

0000000000400eb0 <gethostbyname@plt>:
  400eb0:	ff 25 ea 41 20 00    	jmpq   *0x2041ea(%rip)        # 6050a0 <_GLOBAL_OFFSET_TABLE_+0xa0>
  400eb6:	68 11 00 00 00       	pushq  $0x11
  400ebb:	e9 d0 fe ff ff       	jmpq   400d90 <_init+0x28>

0000000000400ec0 <__memmove_chk@plt>:
  400ec0:	ff 25 e2 41 20 00    	jmpq   *0x2041e2(%rip)        # 6050a8 <_GLOBAL_OFFSET_TABLE_+0xa8>
  400ec6:	68 12 00 00 00       	pushq  $0x12
  400ecb:	e9 c0 fe ff ff       	jmpq   400d90 <_init+0x28>

0000000000400ed0 <strtol@plt>:
  400ed0:	ff 25 da 41 20 00    	jmpq   *0x2041da(%rip)        # 6050b0 <_GLOBAL_OFFSET_TABLE_+0xb0>
  400ed6:	68 13 00 00 00       	pushq  $0x13
  400edb:	e9 b0 fe ff ff       	jmpq   400d90 <_init+0x28>

0000000000400ee0 <memcpy@plt>:
  400ee0:	ff 25 d2 41 20 00    	jmpq   *0x2041d2(%rip)        # 6050b8 <_GLOBAL_OFFSET_TABLE_+0xb8>
  400ee6:	68 14 00 00 00       	pushq  $0x14
  400eeb:	e9 a0 fe ff ff       	jmpq   400d90 <_init+0x28>

0000000000400ef0 <time@plt>:
  400ef0:	ff 25 ca 41 20 00    	jmpq   *0x2041ca(%rip)        # 6050c0 <_GLOBAL_OFFSET_TABLE_+0xc0>
  400ef6:	68 15 00 00 00       	pushq  $0x15
  400efb:	e9 90 fe ff ff       	jmpq   400d90 <_init+0x28>

0000000000400f00 <random@plt>:
  400f00:	ff 25 c2 41 20 00    	jmpq   *0x2041c2(%rip)        # 6050c8 <_GLOBAL_OFFSET_TABLE_+0xc8>
  400f06:	68 16 00 00 00       	pushq  $0x16
  400f0b:	e9 80 fe ff ff       	jmpq   400d90 <_init+0x28>

0000000000400f10 <fflush@plt>:
  400f10:	ff 25 ba 41 20 00    	jmpq   *0x2041ba(%rip)        # 6050d0 <_GLOBAL_OFFSET_TABLE_+0xd0>
  400f16:	68 17 00 00 00       	pushq  $0x17
  400f1b:	e9 70 fe ff ff       	jmpq   400d90 <_init+0x28>

0000000000400f20 <_IO_getc@plt>:
  400f20:	ff 25 b2 41 20 00    	jmpq   *0x2041b2(%rip)        # 6050d8 <_GLOBAL_OFFSET_TABLE_+0xd8>
  400f26:	68 18 00 00 00       	pushq  $0x18
  400f2b:	e9 60 fe ff ff       	jmpq   400d90 <_init+0x28>

0000000000400f30 <__isoc99_sscanf@plt>:
  400f30:	ff 25 aa 41 20 00    	jmpq   *0x2041aa(%rip)        # 6050e0 <_GLOBAL_OFFSET_TABLE_+0xe0>
  400f36:	68 19 00 00 00       	pushq  $0x19
  400f3b:	e9 50 fe ff ff       	jmpq   400d90 <_init+0x28>

0000000000400f40 <munmap@plt>:
  400f40:	ff 25 a2 41 20 00    	jmpq   *0x2041a2(%rip)        # 6050e8 <_GLOBAL_OFFSET_TABLE_+0xe8>
  400f46:	68 1a 00 00 00       	pushq  $0x1a
  400f4b:	e9 40 fe ff ff       	jmpq   400d90 <_init+0x28>

0000000000400f50 <__printf_chk@plt>:
  400f50:	ff 25 9a 41 20 00    	jmpq   *0x20419a(%rip)        # 6050f0 <_GLOBAL_OFFSET_TABLE_+0xf0>
  400f56:	68 1b 00 00 00       	pushq  $0x1b
  400f5b:	e9 30 fe ff ff       	jmpq   400d90 <_init+0x28>

0000000000400f60 <fopen@plt>:
  400f60:	ff 25 92 41 20 00    	jmpq   *0x204192(%rip)        # 6050f8 <_GLOBAL_OFFSET_TABLE_+0xf8>
  400f66:	68 1c 00 00 00       	pushq  $0x1c
  400f6b:	e9 20 fe ff ff       	jmpq   400d90 <_init+0x28>

0000000000400f70 <getopt@plt>:
  400f70:	ff 25 8a 41 20 00    	jmpq   *0x20418a(%rip)        # 605100 <_GLOBAL_OFFSET_TABLE_+0x100>
  400f76:	68 1d 00 00 00       	pushq  $0x1d
  400f7b:	e9 10 fe ff ff       	jmpq   400d90 <_init+0x28>

0000000000400f80 <strtoul@plt>:
  400f80:	ff 25 82 41 20 00    	jmpq   *0x204182(%rip)        # 605108 <_GLOBAL_OFFSET_TABLE_+0x108>
  400f86:	68 1e 00 00 00       	pushq  $0x1e
  400f8b:	e9 00 fe ff ff       	jmpq   400d90 <_init+0x28>

0000000000400f90 <gethostname@plt>:
  400f90:	ff 25 7a 41 20 00    	jmpq   *0x20417a(%rip)        # 605110 <_GLOBAL_OFFSET_TABLE_+0x110>
  400f96:	68 1f 00 00 00       	pushq  $0x1f
  400f9b:	e9 f0 fd ff ff       	jmpq   400d90 <_init+0x28>

0000000000400fa0 <exit@plt>:
  400fa0:	ff 25 72 41 20 00    	jmpq   *0x204172(%rip)        # 605118 <_GLOBAL_OFFSET_TABLE_+0x118>
  400fa6:	68 20 00 00 00       	pushq  $0x20
  400fab:	e9 e0 fd ff ff       	jmpq   400d90 <_init+0x28>

0000000000400fb0 <connect@plt>:
  400fb0:	ff 25 6a 41 20 00    	jmpq   *0x20416a(%rip)        # 605120 <_GLOBAL_OFFSET_TABLE_+0x120>
  400fb6:	68 21 00 00 00       	pushq  $0x21
  400fbb:	e9 d0 fd ff ff       	jmpq   400d90 <_init+0x28>

0000000000400fc0 <__fprintf_chk@plt>:
  400fc0:	ff 25 62 41 20 00    	jmpq   *0x204162(%rip)        # 605128 <_GLOBAL_OFFSET_TABLE_+0x128>
  400fc6:	68 22 00 00 00       	pushq  $0x22
  400fcb:	e9 c0 fd ff ff       	jmpq   400d90 <_init+0x28>

0000000000400fd0 <rand@plt>:
  400fd0:	ff 25 5a 41 20 00    	jmpq   *0x20415a(%rip)        # 605130 <_GLOBAL_OFFSET_TABLE_+0x130>
  400fd6:	68 23 00 00 00       	pushq  $0x23
  400fdb:	e9 b0 fd ff ff       	jmpq   400d90 <_init+0x28>

0000000000400fe0 <__sprintf_chk@plt>:
  400fe0:	ff 25 52 41 20 00    	jmpq   *0x204152(%rip)        # 605138 <_GLOBAL_OFFSET_TABLE_+0x138>
  400fe6:	68 24 00 00 00       	pushq  $0x24
  400feb:	e9 a0 fd ff ff       	jmpq   400d90 <_init+0x28>

0000000000400ff0 <socket@plt>:
  400ff0:	ff 25 4a 41 20 00    	jmpq   *0x20414a(%rip)        # 605140 <_GLOBAL_OFFSET_TABLE_+0x140>
  400ff6:	68 25 00 00 00       	pushq  $0x25
  400ffb:	e9 90 fd ff ff       	jmpq   400d90 <_init+0x28>

Disassembly of section .plt.got:

0000000000401000 <.plt.got>:
  401000:	ff 25 f2 3f 20 00    	jmpq   *0x203ff2(%rip)        # 604ff8 <_DYNAMIC+0x1d0>
  401006:	66 90                	xchg   %ax,%ax

Disassembly of section .text:

0000000000401010 <_start>:
  401010:	31 ed                	xor    %ebp,%ebp
  401012:	49 89 d1             	mov    %rdx,%r9
  401015:	5e                   	pop    %rsi
  401016:	48 89 e2             	mov    %rsp,%rdx
  401019:	48 83 e4 f0          	and    $0xfffffffffffffff0,%rsp
  40101d:	50                   	push   %rax
  40101e:	54                   	push   %rsp
  40101f:	49 c7 c0 c0 32 40 00 	mov    $0x4032c0,%r8
  401026:	48 c7 c1 50 32 40 00 	mov    $0x403250,%rcx
  40102d:	48 c7 c7 15 13 40 00 	mov    $0x401315,%rdi
  401034:	e8 47 fe ff ff       	callq  400e80 <__libc_start_main@plt>
  401039:	f4                   	hlt    
  40103a:	66 0f 1f 44 00 00    	nopw   0x0(%rax,%rax,1)

0000000000401040 <deregister_tm_clones>:
  401040:	b8 d7 54 60 00       	mov    $0x6054d7,%eax
  401045:	55                   	push   %rbp
  401046:	48 2d d0 54 60 00    	sub    $0x6054d0,%rax
  40104c:	48 83 f8 0e          	cmp    $0xe,%rax
  401050:	48 89 e5             	mov    %rsp,%rbp
  401053:	76 1b                	jbe    401070 <deregister_tm_clones+0x30>
  401055:	b8 00 00 00 00       	mov    $0x0,%eax
  40105a:	48 85 c0             	test   %rax,%rax
  40105d:	74 11                	je     401070 <deregister_tm_clones+0x30>
  40105f:	5d                   	pop    %rbp
  401060:	bf d0 54 60 00       	mov    $0x6054d0,%edi
  401065:	ff e0                	jmpq   *%rax
  401067:	66 0f 1f 84 00 00 00 	nopw   0x0(%rax,%rax,1)
  40106e:	00 00 
  401070:	5d                   	pop    %rbp
  401071:	c3                   	retq   
  401072:	0f 1f 40 00          	nopl   0x0(%rax)
  401076:	66 2e 0f 1f 84 00 00 	nopw   %cs:0x0(%rax,%rax,1)
  40107d:	00 00 00 

0000000000401080 <register_tm_clones>:
  401080:	be d0 54 60 00       	mov    $0x6054d0,%esi
  401085:	55                   	push   %rbp
  401086:	48 81 ee d0 54 60 00 	sub    $0x6054d0,%rsi
  40108d:	48 c1 fe 03          	sar    $0x3,%rsi
  401091:	48 89 e5             	mov    %rsp,%rbp
  401094:	48 89 f0             	mov    %rsi,%rax
  401097:	48 c1 e8 3f          	shr    $0x3f,%rax
  40109b:	48 01 c6             	add    %rax,%rsi
  40109e:	48 d1 fe             	sar    %rsi
  4010a1:	74 15                	je     4010b8 <register_tm_clones+0x38>
  4010a3:	b8 00 00 00 00       	mov    $0x0,%eax
  4010a8:	48 85 c0             	test   %rax,%rax
  4010ab:	74 0b                	je     4010b8 <register_tm_clones+0x38>
  4010ad:	5d                   	pop    %rbp
  4010ae:	bf d0 54 60 00       	mov    $0x6054d0,%edi
  4010b3:	ff e0                	jmpq   *%rax
  4010b5:	0f 1f 00             	nopl   (%rax)
  4010b8:	5d                   	pop    %rbp
  4010b9:	c3                   	retq   
  4010ba:	66 0f 1f 44 00 00    	nopw   0x0(%rax,%rax,1)

00000000004010c0 <__do_global_dtors_aux>:
  4010c0:	80 3d 41 44 20 00 00 	cmpb   $0x0,0x204441(%rip)        # 605508 <completed.7585>
  4010c7:	75 11                	jne    4010da <__do_global_dtors_aux+0x1a>
  4010c9:	55                   	push   %rbp
  4010ca:	48 89 e5             	mov    %rsp,%rbp
  4010cd:	e8 6e ff ff ff       	callq  401040 <deregister_tm_clones>
  4010d2:	5d                   	pop    %rbp
  4010d3:	c6 05 2e 44 20 00 01 	movb   $0x1,0x20442e(%rip)        # 605508 <completed.7585>
  4010da:	f3 c3                	repz retq 
  4010dc:	0f 1f 40 00          	nopl   0x0(%rax)

00000000004010e0 <frame_dummy>:
  4010e0:	bf 20 4e 60 00       	mov    $0x604e20,%edi
  4010e5:	48 83 3f 00          	cmpq   $0x0,(%rdi)
  4010e9:	75 05                	jne    4010f0 <frame_dummy+0x10>
  4010eb:	eb 93                	jmp    401080 <register_tm_clones>
  4010ed:	0f 1f 00             	nopl   (%rax)
  4010f0:	b8 00 00 00 00       	mov    $0x0,%eax
  4010f5:	48 85 c0             	test   %rax,%rax
  4010f8:	74 f1                	je     4010eb <frame_dummy+0xb>
  4010fa:	55                   	push   %rbp
  4010fb:	48 89 e5             	mov    %rsp,%rbp
  4010fe:	ff d0                	callq  *%rax
  401100:	5d                   	pop    %rbp
  401101:	e9 7a ff ff ff       	jmpq   401080 <register_tm_clones>

0000000000401106 <usage>:
  401106:	48 83 ec 08          	sub    $0x8,%rsp
  40110a:	48 89 fa             	mov    %rdi,%rdx
  40110d:	83 3d 34 44 20 00 00 	cmpl   $0x0,0x204434(%rip)        # 605548 <is_checker>
  401114:	74 3e                	je     401154 <usage+0x4e>
  401116:	be d8 32 40 00       	mov    $0x4032d8,%esi
  40111b:	bf 01 00 00 00       	mov    $0x1,%edi
  401120:	b8 00 00 00 00       	mov    $0x0,%eax
  401125:	e8 26 fe ff ff       	callq  400f50 <__printf_chk@plt>
  40112a:	bf 10 33 40 00       	mov    $0x403310,%edi
  40112f:	e8 cc fc ff ff       	callq  400e00 <puts@plt>
  401134:	bf 88 34 40 00       	mov    $0x403488,%edi
  401139:	e8 c2 fc ff ff       	callq  400e00 <puts@plt>
  40113e:	bf 38 33 40 00       	mov    $0x403338,%edi
  401143:	e8 b8 fc ff ff       	callq  400e00 <puts@plt>
  401148:	bf a2 34 40 00       	mov    $0x4034a2,%edi
  40114d:	e8 ae fc ff ff       	callq  400e00 <puts@plt>
  401152:	eb 32                	jmp    401186 <usage+0x80>
  401154:	be be 34 40 00       	mov    $0x4034be,%esi
  401159:	bf 01 00 00 00       	mov    $0x1,%edi
  40115e:	b8 00 00 00 00       	mov    $0x0,%eax
  401163:	e8 e8 fd ff ff       	callq  400f50 <__printf_chk@plt>
  401168:	bf 60 33 40 00       	mov    $0x403360,%edi
  40116d:	e8 8e fc ff ff       	callq  400e00 <puts@plt>
  401172:	bf 88 33 40 00       	mov    $0x403388,%edi
  401177:	e8 84 fc ff ff       	callq  400e00 <puts@plt>
  40117c:	bf dc 34 40 00       	mov    $0x4034dc,%edi
  401181:	e8 7a fc ff ff       	callq  400e00 <puts@plt>
  401186:	bf 00 00 00 00       	mov    $0x0,%edi
  40118b:	e8 10 fe ff ff       	callq  400fa0 <exit@plt>

0000000000401190 <initialize_target>:
  401190:	55                   	push   %rbp
  401191:	53                   	push   %rbx
  401192:	48 81 ec 18 21 00 00 	sub    $0x2118,%rsp
  401199:	89 f5                	mov    %esi,%ebp
  40119b:	64 48 8b 04 25 28 00 	mov    %fs:0x28,%rax
  4011a2:	00 00 
  4011a4:	48 89 84 24 08 21 00 	mov    %rax,0x2108(%rsp)
  4011ab:	00 
  4011ac:	31 c0                	xor    %eax,%eax
  4011ae:	89 3d 84 43 20 00    	mov    %edi,0x204384(%rip)        # 605538 <check_level>
  4011b4:	8b 3d ce 3f 20 00    	mov    0x203fce(%rip),%edi        # 605188 <target_id>
  4011ba:	e8 71 20 00 00       	callq  403230 <gencookie>
  4011bf:	89 05 7f 43 20 00    	mov    %eax,0x20437f(%rip)        # 605544 <cookie>
  4011c5:	89 c7                	mov    %eax,%edi
  4011c7:	e8 64 20 00 00       	callq  403230 <gencookie>
  4011cc:	89 05 6e 43 20 00    	mov    %eax,0x20436e(%rip)        # 605540 <authkey>
  4011d2:	8b 05 b0 3f 20 00    	mov    0x203fb0(%rip),%eax        # 605188 <target_id>
  4011d8:	8d 78 01             	lea    0x1(%rax),%edi
  4011db:	e8 f0 fb ff ff       	callq  400dd0 <srandom@plt>
  4011e0:	e8 1b fd ff ff       	callq  400f00 <random@plt>
  4011e5:	89 c7                	mov    %eax,%edi
  4011e7:	e8 03 03 00 00       	callq  4014ef <scramble>
  4011ec:	89 c3                	mov    %eax,%ebx
  4011ee:	85 ed                	test   %ebp,%ebp
  4011f0:	74 18                	je     40120a <initialize_target+0x7a>
  4011f2:	bf 00 00 00 00       	mov    $0x0,%edi
  4011f7:	e8 f4 fc ff ff       	callq  400ef0 <time@plt>
  4011fc:	89 c7                	mov    %eax,%edi
  4011fe:	e8 cd fb ff ff       	callq  400dd0 <srandom@plt>
  401203:	e8 f8 fc ff ff       	callq  400f00 <random@plt>
  401208:	eb 05                	jmp    40120f <initialize_target+0x7f>
  40120a:	b8 00 00 00 00       	mov    $0x0,%eax
  40120f:	01 c3                	add    %eax,%ebx
  401211:	0f b7 db             	movzwl %bx,%ebx
  401214:	8d 04 dd 00 01 00 00 	lea    0x100(,%rbx,8),%eax
  40121b:	89 c0                	mov    %eax,%eax
  40121d:	48 89 05 9c 42 20 00 	mov    %rax,0x20429c(%rip)        # 6054c0 <buf_offset>
  401224:	c6 05 3d 4f 20 00 72 	movb   $0x72,0x204f3d(%rip)        # 606168 <target_prefix>
  40122b:	83 3d 96 42 20 00 00 	cmpl   $0x0,0x204296(%rip)        # 6054c8 <notify>
  401232:	0f 84 bb 00 00 00    	je     4012f3 <initialize_target+0x163>
  401238:	83 3d 09 43 20 00 00 	cmpl   $0x0,0x204309(%rip)        # 605548 <is_checker>
  40123f:	0f 85 ae 00 00 00    	jne    4012f3 <initialize_target+0x163>
  401245:	be 00 01 00 00       	mov    $0x100,%esi
  40124a:	48 89 e7             	mov    %rsp,%rdi
  40124d:	e8 3e fd ff ff       	callq  400f90 <gethostname@plt>
  401252:	85 c0                	test   %eax,%eax
  401254:	74 25                	je     40127b <initialize_target+0xeb>
  401256:	bf b8 33 40 00       	mov    $0x4033b8,%edi
  40125b:	e8 a0 fb ff ff       	callq  400e00 <puts@plt>
  401260:	bf 08 00 00 00       	mov    $0x8,%edi
  401265:	e8 36 fd ff ff       	callq  400fa0 <exit@plt>
  40126a:	48 89 e6             	mov    %rsp,%rsi
  40126d:	e8 3e fb ff ff       	callq  400db0 <strcasecmp@plt>
  401272:	85 c0                	test   %eax,%eax
  401274:	74 21                	je     401297 <initialize_target+0x107>
  401276:	83 c3 01             	add    $0x1,%ebx
  401279:	eb 05                	jmp    401280 <initialize_target+0xf0>
  40127b:	bb 00 00 00 00       	mov    $0x0,%ebx
  401280:	48 63 c3             	movslq %ebx,%rax
  401283:	48 8b 3c c5 a0 51 60 	mov    0x6051a0(,%rax,8),%rdi
  40128a:	00 
  40128b:	48 85 ff             	test   %rdi,%rdi
  40128e:	75 da                	jne    40126a <initialize_target+0xda>
  401290:	b8 00 00 00 00       	mov    $0x0,%eax
  401295:	eb 05                	jmp    40129c <initialize_target+0x10c>
  401297:	b8 01 00 00 00       	mov    $0x1,%eax
  40129c:	85 c0                	test   %eax,%eax
  40129e:	75 1c                	jne    4012bc <initialize_target+0x12c>
  4012a0:	48 89 e2             	mov    %rsp,%rdx
  4012a3:	be f0 33 40 00       	mov    $0x4033f0,%esi
  4012a8:	bf 01 00 00 00       	mov    $0x1,%edi
  4012ad:	e8 9e fc ff ff       	callq  400f50 <__printf_chk@plt>
  4012b2:	bf 08 00 00 00       	mov    $0x8,%edi
  4012b7:	e8 e4 fc ff ff       	callq  400fa0 <exit@plt>
  4012bc:	48 8d bc 24 00 01 00 	lea    0x100(%rsp),%rdi
  4012c3:	00 
  4012c4:	e8 d1 1c 00 00       	callq  402f9a <init_driver>
  4012c9:	85 c0                	test   %eax,%eax
  4012cb:	79 26                	jns    4012f3 <initialize_target+0x163>
  4012cd:	48 8d 94 24 00 01 00 	lea    0x100(%rsp),%rdx
  4012d4:	00 
  4012d5:	be 30 34 40 00       	mov    $0x403430,%esi
  4012da:	bf 01 00 00 00       	mov    $0x1,%edi
  4012df:	b8 00 00 00 00       	mov    $0x0,%eax
  4012e4:	e8 67 fc ff ff       	callq  400f50 <__printf_chk@plt>
  4012e9:	bf 08 00 00 00       	mov    $0x8,%edi
  4012ee:	e8 ad fc ff ff       	callq  400fa0 <exit@plt>
  4012f3:	48 8b 84 24 08 21 00 	mov    0x2108(%rsp),%rax
  4012fa:	00 
  4012fb:	64 48 33 04 25 28 00 	xor    %fs:0x28,%rax
  401302:	00 00 
  401304:	74 05                	je     40130b <initialize_target+0x17b>
  401306:	e8 15 fb ff ff       	callq  400e20 <__stack_chk_fail@plt>
  40130b:	48 81 c4 18 21 00 00 	add    $0x2118,%rsp
  401312:	5b                   	pop    %rbx
  401313:	5d                   	pop    %rbp
  401314:	c3                   	retq   

0000000000401315 <main>:
  401315:	41 56                	push   %r14
  401317:	41 55                	push   %r13
  401319:	41 54                	push   %r12
  40131b:	55                   	push   %rbp
  40131c:	53                   	push   %rbx
  40131d:	41 89 fc             	mov    %edi,%r12d
  401320:	48 89 f3             	mov    %rsi,%rbx
  401323:	be d5 22 40 00       	mov    $0x4022d5,%esi
  401328:	bf 0b 00 00 00       	mov    $0xb,%edi
  40132d:	e8 6e fb ff ff       	callq  400ea0 <signal@plt>
  401332:	be 87 22 40 00       	mov    $0x402287,%esi
  401337:	bf 07 00 00 00       	mov    $0x7,%edi
  40133c:	e8 5f fb ff ff       	callq  400ea0 <signal@plt>
  401341:	be 23 23 40 00       	mov    $0x402323,%esi
  401346:	bf 04 00 00 00       	mov    $0x4,%edi
  40134b:	e8 50 fb ff ff       	callq  400ea0 <signal@plt>
  401350:	83 3d f1 41 20 00 00 	cmpl   $0x0,0x2041f1(%rip)        # 605548 <is_checker>
  401357:	74 20                	je     401379 <main+0x64>
  401359:	be 71 23 40 00       	mov    $0x402371,%esi
  40135e:	bf 0e 00 00 00       	mov    $0xe,%edi
  401363:	e8 38 fb ff ff       	callq  400ea0 <signal@plt>
  401368:	bf 05 00 00 00       	mov    $0x5,%edi
  40136d:	e8 de fa ff ff       	callq  400e50 <alarm@plt>
  401372:	bd fa 34 40 00       	mov    $0x4034fa,%ebp
  401377:	eb 05                	jmp    40137e <main+0x69>
  401379:	bd f5 34 40 00       	mov    $0x4034f5,%ebp
  40137e:	48 8b 05 6b 41 20 00 	mov    0x20416b(%rip),%rax        # 6054f0 <stdin@@GLIBC_2.2.5>
  401385:	48 89 05 a4 41 20 00 	mov    %rax,0x2041a4(%rip)        # 605530 <infile>
  40138c:	41 bd 00 00 00 00    	mov    $0x0,%r13d
  401392:	41 be 00 00 00 00    	mov    $0x0,%r14d
  401398:	e9 c6 00 00 00       	jmpq   401463 <main+0x14e>
  40139d:	83 e8 61             	sub    $0x61,%eax
  4013a0:	3c 10                	cmp    $0x10,%al
  4013a2:	0f 87 9c 00 00 00    	ja     401444 <main+0x12f>
  4013a8:	0f b6 c0             	movzbl %al,%eax
  4013ab:	ff 24 c5 40 35 40 00 	jmpq   *0x403540(,%rax,8)
  4013b2:	48 8b 3b             	mov    (%rbx),%rdi
  4013b5:	e8 4c fd ff ff       	callq  401106 <usage>
  4013ba:	be 4d 3b 40 00       	mov    $0x403b4d,%esi
  4013bf:	48 8b 3d 32 41 20 00 	mov    0x204132(%rip),%rdi        # 6054f8 <optarg@@GLIBC_2.2.5>
  4013c6:	e8 95 fb ff ff       	callq  400f60 <fopen@plt>
  4013cb:	48 89 05 5e 41 20 00 	mov    %rax,0x20415e(%rip)        # 605530 <infile>
  4013d2:	48 85 c0             	test   %rax,%rax
  4013d5:	0f 85 88 00 00 00    	jne    401463 <main+0x14e>
  4013db:	48 8b 0d 16 41 20 00 	mov    0x204116(%rip),%rcx        # 6054f8 <optarg@@GLIBC_2.2.5>
  4013e2:	ba 02 35 40 00       	mov    $0x403502,%edx
  4013e7:	be 01 00 00 00       	mov    $0x1,%esi
  4013ec:	48 8b 3d 0d 41 20 00 	mov    0x20410d(%rip),%rdi        # 605500 <stderr@@GLIBC_2.2.5>
  4013f3:	e8 c8 fb ff ff       	callq  400fc0 <__fprintf_chk@plt>
  4013f8:	b8 01 00 00 00       	mov    $0x1,%eax
  4013fd:	e9 e4 00 00 00       	jmpq   4014e6 <main+0x1d1>
  401402:	ba 10 00 00 00       	mov    $0x10,%edx
  401407:	be 00 00 00 00       	mov    $0x0,%esi
  40140c:	48 8b 3d e5 40 20 00 	mov    0x2040e5(%rip),%rdi        # 6054f8 <optarg@@GLIBC_2.2.5>
  401413:	e8 68 fb ff ff       	callq  400f80 <strtoul@plt>
  401418:	41 89 c6             	mov    %eax,%r14d
  40141b:	eb 46                	jmp    401463 <main+0x14e>
  40141d:	ba 0a 00 00 00       	mov    $0xa,%edx
  401422:	be 00 00 00 00       	mov    $0x0,%esi
  401427:	48 8b 3d ca 40 20 00 	mov    0x2040ca(%rip),%rdi        # 6054f8 <optarg@@GLIBC_2.2.5>
  40142e:	e8 9d fa ff ff       	callq  400ed0 <strtol@plt>
  401433:	41 89 c5             	mov    %eax,%r13d
  401436:	eb 2b                	jmp    401463 <main+0x14e>
  401438:	c7 05 86 40 20 00 00 	movl   $0x0,0x204086(%rip)        # 6054c8 <notify>
  40143f:	00 00 00 
  401442:	eb 1f                	jmp    401463 <main+0x14e>
  401444:	0f be d2             	movsbl %dl,%edx
  401447:	be 1f 35 40 00       	mov    $0x40351f,%esi
  40144c:	bf 01 00 00 00       	mov    $0x1,%edi
  401451:	b8 00 00 00 00       	mov    $0x0,%eax
  401456:	e8 f5 fa ff ff       	callq  400f50 <__printf_chk@plt>
  40145b:	48 8b 3b             	mov    (%rbx),%rdi
  40145e:	e8 a3 fc ff ff       	callq  401106 <usage>
  401463:	48 89 ea             	mov    %rbp,%rdx
  401466:	48 89 de             	mov    %rbx,%rsi
  401469:	44 89 e7             	mov    %r12d,%edi
  40146c:	e8 ff fa ff ff       	callq  400f70 <getopt@plt>
  401471:	89 c2                	mov    %eax,%edx
  401473:	3c ff                	cmp    $0xff,%al
  401475:	0f 85 22 ff ff ff    	jne    40139d <main+0x88>
  40147b:	be 01 00 00 00       	mov    $0x1,%esi
  401480:	44 89 ef             	mov    %r13d,%edi
  401483:	e8 08 fd ff ff       	callq  401190 <initialize_target>
  401488:	83 3d b9 40 20 00 00 	cmpl   $0x0,0x2040b9(%rip)        # 605548 <is_checker>
  40148f:	74 2a                	je     4014bb <main+0x1a6>
  401491:	44 3b 35 a8 40 20 00 	cmp    0x2040a8(%rip),%r14d        # 605540 <authkey>
  401498:	74 21                	je     4014bb <main+0x1a6>
  40149a:	44 89 f2             	mov    %r14d,%edx
  40149d:	be 58 34 40 00       	mov    $0x403458,%esi
  4014a2:	bf 01 00 00 00       	mov    $0x1,%edi
  4014a7:	b8 00 00 00 00       	mov    $0x0,%eax
  4014ac:	e8 9f fa ff ff       	callq  400f50 <__printf_chk@plt>
  4014b1:	b8 00 00 00 00       	mov    $0x0,%eax
  4014b6:	e8 6d 0a 00 00       	callq  401f28 <check_fail>
  4014bb:	8b 15 83 40 20 00    	mov    0x204083(%rip),%edx        # 605544 <cookie>
  4014c1:	be 32 35 40 00       	mov    $0x403532,%esi
  4014c6:	bf 01 00 00 00       	mov    $0x1,%edi
  4014cb:	b8 00 00 00 00       	mov    $0x0,%eax
  4014d0:	e8 7b fa ff ff       	callq  400f50 <__printf_chk@plt>
  4014d5:	48 8b 3d e4 3f 20 00 	mov    0x203fe4(%rip),%rdi        # 6054c0 <buf_offset>
  4014dc:	e8 e3 0e 00 00       	callq  4023c4 <launch>
  4014e1:	b8 00 00 00 00       	mov    $0x0,%eax
  4014e6:	5b                   	pop    %rbx
  4014e7:	5d                   	pop    %rbp
  4014e8:	41 5c                	pop    %r12
  4014ea:	41 5d                	pop    %r13
  4014ec:	41 5e                	pop    %r14
  4014ee:	c3                   	retq   

00000000004014ef <scramble>:
  4014ef:	48 83 ec 38          	sub    $0x38,%rsp
  4014f3:	64 48 8b 04 25 28 00 	mov    %fs:0x28,%rax
  4014fa:	00 00 
  4014fc:	48 89 44 24 28       	mov    %rax,0x28(%rsp)
  401501:	31 c0                	xor    %eax,%eax
  401503:	eb 10                	jmp    401515 <scramble+0x26>
  401505:	69 d0 07 87 00 00    	imul   $0x8707,%eax,%edx
  40150b:	01 fa                	add    %edi,%edx
  40150d:	89 c1                	mov    %eax,%ecx
  40150f:	89 14 8c             	mov    %edx,(%rsp,%rcx,4)
  401512:	83 c0 01             	add    $0x1,%eax
  401515:	83 f8 09             	cmp    $0x9,%eax
  401518:	76 eb                	jbe    401505 <scramble+0x16>
  40151a:	8b 44 24 14          	mov    0x14(%rsp),%eax
  40151e:	69 c0 6b ff 00 00    	imul   $0xff6b,%eax,%eax
  401524:	89 44 24 14          	mov    %eax,0x14(%rsp)
  401528:	8b 44 24 1c          	mov    0x1c(%rsp),%eax
  40152c:	69 c0 aa 68 00 00    	imul   $0x68aa,%eax,%eax
  401532:	89 44 24 1c          	mov    %eax,0x1c(%rsp)
  401536:	8b 44 24 14          	mov    0x14(%rsp),%eax
  40153a:	69 c0 70 bd 00 00    	imul   $0xbd70,%eax,%eax
  401540:	89 44 24 14          	mov    %eax,0x14(%rsp)
  401544:	8b 44 24 0c          	mov    0xc(%rsp),%eax
  401548:	69 c0 bb fe 00 00    	imul   $0xfebb,%eax,%eax
  40154e:	89 44 24 0c          	mov    %eax,0xc(%rsp)
  401552:	8b 44 24 08          	mov    0x8(%rsp),%eax
  401556:	69 c0 ba a5 00 00    	imul   $0xa5ba,%eax,%eax
  40155c:	89 44 24 08          	mov    %eax,0x8(%rsp)
  401560:	8b 44 24 08          	mov    0x8(%rsp),%eax
  401564:	69 c0 42 69 00 00    	imul   $0x6942,%eax,%eax
  40156a:	89 44 24 08          	mov    %eax,0x8(%rsp)
  40156e:	8b 44 24 24          	mov    0x24(%rsp),%eax
  401572:	69 c0 6b 3a 00 00    	imul   $0x3a6b,%eax,%eax
  401578:	89 44 24 24          	mov    %eax,0x24(%rsp)
  40157c:	8b 44 24 24          	mov    0x24(%rsp),%eax
  401580:	69 c0 6a 01 00 00    	imul   $0x16a,%eax,%eax
  401586:	89 44 24 24          	mov    %eax,0x24(%rsp)
  40158a:	8b 44 24 08          	mov    0x8(%rsp),%eax
  40158e:	69 c0 f6 9d 00 00    	imul   $0x9df6,%eax,%eax
  401594:	89 44 24 08          	mov    %eax,0x8(%rsp)
  401598:	8b 44 24 18          	mov    0x18(%rsp),%eax
  40159c:	69 c0 19 ba 00 00    	imul   $0xba19,%eax,%eax
  4015a2:	89 44 24 18          	mov    %eax,0x18(%rsp)
  4015a6:	8b 44 24 20          	mov    0x20(%rsp),%eax
  4015aa:	69 c0 cf 4e 00 00    	imul   $0x4ecf,%eax,%eax
  4015b0:	89 44 24 20          	mov    %eax,0x20(%rsp)
  4015b4:	8b 44 24 24          	mov    0x24(%rsp),%eax
  4015b8:	69 c0 23 85 00 00    	imul   $0x8523,%eax,%eax
  4015be:	89 44 24 24          	mov    %eax,0x24(%rsp)
  4015c2:	8b 44 24 0c          	mov    0xc(%rsp),%eax
  4015c6:	69 c0 db fb 00 00    	imul   $0xfbdb,%eax,%eax
  4015cc:	89 44 24 0c          	mov    %eax,0xc(%rsp)
  4015d0:	8b 44 24 10          	mov    0x10(%rsp),%eax
  4015d4:	69 c0 02 3a 00 00    	imul   $0x3a02,%eax,%eax
  4015da:	89 44 24 10          	mov    %eax,0x10(%rsp)
  4015de:	8b 44 24 18          	mov    0x18(%rsp),%eax
  4015e2:	69 c0 ba c8 00 00    	imul   $0xc8ba,%eax,%eax
  4015e8:	89 44 24 18          	mov    %eax,0x18(%rsp)
  4015ec:	8b 44 24 18          	mov    0x18(%rsp),%eax
  4015f0:	69 c0 ad 4c 00 00    	imul   $0x4cad,%eax,%eax
  4015f6:	89 44 24 18          	mov    %eax,0x18(%rsp)
  4015fa:	8b 44 24 18          	mov    0x18(%rsp),%eax
  4015fe:	69 c0 f7 07 00 00    	imul   $0x7f7,%eax,%eax
  401604:	89 44 24 18          	mov    %eax,0x18(%rsp)
  401608:	8b 44 24 24          	mov    0x24(%rsp),%eax
  40160c:	69 c0 a7 e1 00 00    	imul   $0xe1a7,%eax,%eax
  401612:	89 44 24 24          	mov    %eax,0x24(%rsp)
  401616:	8b 44 24 20          	mov    0x20(%rsp),%eax
  40161a:	69 c0 ff b2 00 00    	imul   $0xb2ff,%eax,%eax
  401620:	89 44 24 20          	mov    %eax,0x20(%rsp)
  401624:	8b 44 24 04          	mov    0x4(%rsp),%eax
  401628:	69 c0 b5 2a 00 00    	imul   $0x2ab5,%eax,%eax
  40162e:	89 44 24 04          	mov    %eax,0x4(%rsp)
  401632:	8b 44 24 0c          	mov    0xc(%rsp),%eax
  401636:	69 c0 5c 8c 00 00    	imul   $0x8c5c,%eax,%eax
  40163c:	89 44 24 0c          	mov    %eax,0xc(%rsp)
  401640:	8b 44 24 1c          	mov    0x1c(%rsp),%eax
  401644:	69 c0 a9 ea 00 00    	imul   $0xeaa9,%eax,%eax
  40164a:	89 44 24 1c          	mov    %eax,0x1c(%rsp)
  40164e:	8b 44 24 1c          	mov    0x1c(%rsp),%eax
  401652:	69 c0 24 33 00 00    	imul   $0x3324,%eax,%eax
  401658:	89 44 24 1c          	mov    %eax,0x1c(%rsp)
  40165c:	8b 44 24 10          	mov    0x10(%rsp),%eax
  401660:	69 c0 7c 03 00 00    	imul   $0x37c,%eax,%eax
  401666:	89 44 24 10          	mov    %eax,0x10(%rsp)
  40166a:	8b 44 24 0c          	mov    0xc(%rsp),%eax
  40166e:	69 c0 8f 3d 00 00    	imul   $0x3d8f,%eax,%eax
  401674:	89 44 24 0c          	mov    %eax,0xc(%rsp)
  401678:	8b 04 24             	mov    (%rsp),%eax
  40167b:	69 c0 ec 36 00 00    	imul   $0x36ec,%eax,%eax
  401681:	89 04 24             	mov    %eax,(%rsp)
  401684:	8b 44 24 10          	mov    0x10(%rsp),%eax
  401688:	69 c0 98 20 00 00    	imul   $0x2098,%eax,%eax
  40168e:	89 44 24 10          	mov    %eax,0x10(%rsp)
  401692:	8b 44 24 0c          	mov    0xc(%rsp),%eax
  401696:	69 c0 d6 28 00 00    	imul   $0x28d6,%eax,%eax
  40169c:	89 44 24 0c          	mov    %eax,0xc(%rsp)
  4016a0:	8b 04 24             	mov    (%rsp),%eax
  4016a3:	69 c0 cb ba 00 00    	imul   $0xbacb,%eax,%eax
  4016a9:	89 04 24             	mov    %eax,(%rsp)
  4016ac:	8b 44 24 08          	mov    0x8(%rsp),%eax
  4016b0:	69 c0 19 e2 00 00    	imul   $0xe219,%eax,%eax
  4016b6:	89 44 24 08          	mov    %eax,0x8(%rsp)
  4016ba:	8b 44 24 0c          	mov    0xc(%rsp),%eax
  4016be:	69 c0 d6 a4 00 00    	imul   $0xa4d6,%eax,%eax
  4016c4:	89 44 24 0c          	mov    %eax,0xc(%rsp)
  4016c8:	8b 44 24 04          	mov    0x4(%rsp),%eax
  4016cc:	69 c0 ac 4b 00 00    	imul   $0x4bac,%eax,%eax
  4016d2:	89 44 24 04          	mov    %eax,0x4(%rsp)
  4016d6:	8b 44 24 0c          	mov    0xc(%rsp),%eax
  4016da:	69 c0 1f e4 00 00    	imul   $0xe41f,%eax,%eax
  4016e0:	89 44 24 0c          	mov    %eax,0xc(%rsp)
  4016e4:	8b 44 24 08          	mov    0x8(%rsp),%eax
  4016e8:	69 c0 34 72 00 00    	imul   $0x7234,%eax,%eax
  4016ee:	89 44 24 08          	mov    %eax,0x8(%rsp)
  4016f2:	8b 44 24 1c          	mov    0x1c(%rsp),%eax
  4016f6:	69 c0 b5 0d 00 00    	imul   $0xdb5,%eax,%eax
  4016fc:	89 44 24 1c          	mov    %eax,0x1c(%rsp)
  401700:	8b 44 24 14          	mov    0x14(%rsp),%eax
  401704:	69 c0 d7 ef 00 00    	imul   $0xefd7,%eax,%eax
  40170a:	89 44 24 14          	mov    %eax,0x14(%rsp)
  40170e:	8b 04 24             	mov    (%rsp),%eax
  401711:	69 c0 e0 30 00 00    	imul   $0x30e0,%eax,%eax
  401717:	89 04 24             	mov    %eax,(%rsp)
  40171a:	8b 44 24 18          	mov    0x18(%rsp),%eax
  40171e:	69 c0 d8 60 00 00    	imul   $0x60d8,%eax,%eax
  401724:	89 44 24 18          	mov    %eax,0x18(%rsp)
  401728:	8b 44 24 08          	mov    0x8(%rsp),%eax
  40172c:	69 c0 93 c6 00 00    	imul   $0xc693,%eax,%eax
  401732:	89 44 24 08          	mov    %eax,0x8(%rsp)
  401736:	8b 44 24 18          	mov    0x18(%rsp),%eax
  40173a:	69 c0 1f 35 00 00    	imul   $0x351f,%eax,%eax
  401740:	89 44 24 18          	mov    %eax,0x18(%rsp)
  401744:	8b 44 24 14          	mov    0x14(%rsp),%eax
  401748:	69 c0 ea 21 00 00    	imul   $0x21ea,%eax,%eax
  40174e:	89 44 24 14          	mov    %eax,0x14(%rsp)
  401752:	8b 04 24             	mov    (%rsp),%eax
  401755:	69 c0 81 90 00 00    	imul   $0x9081,%eax,%eax
  40175b:	89 04 24             	mov    %eax,(%rsp)
  40175e:	8b 44 24 24          	mov    0x24(%rsp),%eax
  401762:	69 c0 1b 28 00 00    	imul   $0x281b,%eax,%eax
  401768:	89 44 24 24          	mov    %eax,0x24(%rsp)
  40176c:	8b 44 24 24          	mov    0x24(%rsp),%eax
  401770:	69 c0 f5 5e 00 00    	imul   $0x5ef5,%eax,%eax
  401776:	89 44 24 24          	mov    %eax,0x24(%rsp)
  40177a:	8b 44 24 10          	mov    0x10(%rsp),%eax
  40177e:	69 c0 2f 1c 00 00    	imul   $0x1c2f,%eax,%eax
  401784:	89 44 24 10          	mov    %eax,0x10(%rsp)
  401788:	8b 44 24 24          	mov    0x24(%rsp),%eax
  40178c:	69 c0 6d 66 00 00    	imul   $0x666d,%eax,%eax
  401792:	89 44 24 24          	mov    %eax,0x24(%rsp)
  401796:	8b 44 24 0c          	mov    0xc(%rsp),%eax
  40179a:	69 c0 d5 6f 00 00    	imul   $0x6fd5,%eax,%eax
  4017a0:	89 44 24 0c          	mov    %eax,0xc(%rsp)
  4017a4:	8b 44 24 20          	mov    0x20(%rsp),%eax
  4017a8:	69 c0 d2 6d 00 00    	imul   $0x6dd2,%eax,%eax
  4017ae:	89 44 24 20          	mov    %eax,0x20(%rsp)
  4017b2:	8b 44 24 08          	mov    0x8(%rsp),%eax
  4017b6:	69 c0 6c df 00 00    	imul   $0xdf6c,%eax,%eax
  4017bc:	89 44 24 08          	mov    %eax,0x8(%rsp)
  4017c0:	8b 44 24 24          	mov    0x24(%rsp),%eax
  4017c4:	69 c0 12 eb 00 00    	imul   $0xeb12,%eax,%eax
  4017ca:	89 44 24 24          	mov    %eax,0x24(%rsp)
  4017ce:	8b 44 24 14          	mov    0x14(%rsp),%eax
  4017d2:	69 c0 f0 7c 00 00    	imul   $0x7cf0,%eax,%eax
  4017d8:	89 44 24 14          	mov    %eax,0x14(%rsp)
  4017dc:	8b 44 24 10          	mov    0x10(%rsp),%eax
  4017e0:	69 c0 32 87 00 00    	imul   $0x8732,%eax,%eax
  4017e6:	89 44 24 10          	mov    %eax,0x10(%rsp)
  4017ea:	8b 04 24             	mov    (%rsp),%eax
  4017ed:	69 c0 69 b5 00 00    	imul   $0xb569,%eax,%eax
  4017f3:	89 04 24             	mov    %eax,(%rsp)
  4017f6:	8b 44 24 08          	mov    0x8(%rsp),%eax
  4017fa:	69 c0 d5 11 00 00    	imul   $0x11d5,%eax,%eax
  401800:	89 44 24 08          	mov    %eax,0x8(%rsp)
  401804:	8b 44 24 08          	mov    0x8(%rsp),%eax
  401808:	69 c0 5e 4c 00 00    	imul   $0x4c5e,%eax,%eax
  40180e:	89 44 24 08          	mov    %eax,0x8(%rsp)
  401812:	8b 04 24             	mov    (%rsp),%eax
  401815:	69 c0 1f 80 00 00    	imul   $0x801f,%eax,%eax
  40181b:	89 04 24             	mov    %eax,(%rsp)
  40181e:	8b 44 24 20          	mov    0x20(%rsp),%eax
  401822:	69 c0 ff b2 00 00    	imul   $0xb2ff,%eax,%eax
  401828:	89 44 24 20          	mov    %eax,0x20(%rsp)
  40182c:	8b 44 24 24          	mov    0x24(%rsp),%eax
  401830:	69 c0 ca b0 00 00    	imul   $0xb0ca,%eax,%eax
  401836:	89 44 24 24          	mov    %eax,0x24(%rsp)
  40183a:	8b 44 24 1c          	mov    0x1c(%rsp),%eax
  40183e:	69 c0 f7 c9 00 00    	imul   $0xc9f7,%eax,%eax
  401844:	89 44 24 1c          	mov    %eax,0x1c(%rsp)
  401848:	8b 44 24 20          	mov    0x20(%rsp),%eax
  40184c:	69 c0 02 be 00 00    	imul   $0xbe02,%eax,%eax
  401852:	89 44 24 20          	mov    %eax,0x20(%rsp)
  401856:	8b 44 24 0c          	mov    0xc(%rsp),%eax
  40185a:	69 c0 ce 50 00 00    	imul   $0x50ce,%eax,%eax
  401860:	89 44 24 0c          	mov    %eax,0xc(%rsp)
  401864:	8b 44 24 04          	mov    0x4(%rsp),%eax
  401868:	69 c0 2b a7 00 00    	imul   $0xa72b,%eax,%eax
  40186e:	89 44 24 04          	mov    %eax,0x4(%rsp)
  401872:	8b 44 24 1c          	mov    0x1c(%rsp),%eax
  401876:	69 c0 88 d6 00 00    	imul   $0xd688,%eax,%eax
  40187c:	89 44 24 1c          	mov    %eax,0x1c(%rsp)
  401880:	8b 44 24 10          	mov    0x10(%rsp),%eax
  401884:	69 c0 98 14 00 00    	imul   $0x1498,%eax,%eax
  40188a:	89 44 24 10          	mov    %eax,0x10(%rsp)
  40188e:	8b 44 24 08          	mov    0x8(%rsp),%eax
  401892:	69 c0 03 f5 00 00    	imul   $0xf503,%eax,%eax
  401898:	89 44 24 08          	mov    %eax,0x8(%rsp)
  40189c:	8b 44 24 0c          	mov    0xc(%rsp),%eax
  4018a0:	69 c0 15 a3 00 00    	imul   $0xa315,%eax,%eax
  4018a6:	89 44 24 0c          	mov    %eax,0xc(%rsp)
  4018aa:	8b 44 24 0c          	mov    0xc(%rsp),%eax
  4018ae:	69 c0 94 da 00 00    	imul   $0xda94,%eax,%eax
  4018b4:	89 44 24 0c          	mov    %eax,0xc(%rsp)
  4018b8:	8b 44 24 0c          	mov    0xc(%rsp),%eax
  4018bc:	69 c0 c4 1f 00 00    	imul   $0x1fc4,%eax,%eax
  4018c2:	89 44 24 0c          	mov    %eax,0xc(%rsp)
  4018c6:	8b 44 24 24          	mov    0x24(%rsp),%eax
  4018ca:	69 c0 51 12 00 00    	imul   $0x1251,%eax,%eax
  4018d0:	89 44 24 24          	mov    %eax,0x24(%rsp)
  4018d4:	8b 44 24 24          	mov    0x24(%rsp),%eax
  4018d8:	69 c0 fa 0b 00 00    	imul   $0xbfa,%eax,%eax
  4018de:	89 44 24 24          	mov    %eax,0x24(%rsp)
  4018e2:	8b 44 24 1c          	mov    0x1c(%rsp),%eax
  4018e6:	69 c0 8d 78 00 00    	imul   $0x788d,%eax,%eax
  4018ec:	89 44 24 1c          	mov    %eax,0x1c(%rsp)
  4018f0:	8b 44 24 08          	mov    0x8(%rsp),%eax
  4018f4:	69 c0 f8 cc 00 00    	imul   $0xccf8,%eax,%eax
  4018fa:	89 44 24 08          	mov    %eax,0x8(%rsp)
  4018fe:	8b 44 24 10          	mov    0x10(%rsp),%eax
  401902:	69 c0 b9 9c 00 00    	imul   $0x9cb9,%eax,%eax
  401908:	89 44 24 10          	mov    %eax,0x10(%rsp)
  40190c:	8b 44 24 18          	mov    0x18(%rsp),%eax
  401910:	69 c0 a7 06 00 00    	imul   $0x6a7,%eax,%eax
  401916:	89 44 24 18          	mov    %eax,0x18(%rsp)
  40191a:	8b 44 24 14          	mov    0x14(%rsp),%eax
  40191e:	69 c0 82 8d 00 00    	imul   $0x8d82,%eax,%eax
  401924:	89 44 24 14          	mov    %eax,0x14(%rsp)
  401928:	8b 44 24 20          	mov    0x20(%rsp),%eax
  40192c:	69 c0 d6 4c 00 00    	imul   $0x4cd6,%eax,%eax
  401932:	89 44 24 20          	mov    %eax,0x20(%rsp)
  401936:	8b 44 24 14          	mov    0x14(%rsp),%eax
  40193a:	69 c0 18 e9 00 00    	imul   $0xe918,%eax,%eax
  401940:	89 44 24 14          	mov    %eax,0x14(%rsp)
  401944:	8b 44 24 18          	mov    0x18(%rsp),%eax
  401948:	69 c0 f3 9e 00 00    	imul   $0x9ef3,%eax,%eax
  40194e:	89 44 24 18          	mov    %eax,0x18(%rsp)
  401952:	8b 44 24 0c          	mov    0xc(%rsp),%eax
  401956:	69 c0 fe 08 00 00    	imul   $0x8fe,%eax,%eax
  40195c:	89 44 24 0c          	mov    %eax,0xc(%rsp)
  401960:	8b 44 24 14          	mov    0x14(%rsp),%eax
  401964:	69 c0 94 75 00 00    	imul   $0x7594,%eax,%eax
  40196a:	89 44 24 14          	mov    %eax,0x14(%rsp)
  40196e:	8b 44 24 1c          	mov    0x1c(%rsp),%eax
  401972:	69 c0 36 b3 00 00    	imul   $0xb336,%eax,%eax
  401978:	89 44 24 1c          	mov    %eax,0x1c(%rsp)
  40197c:	8b 44 24 18          	mov    0x18(%rsp),%eax
  401980:	69 c0 f5 6f 00 00    	imul   $0x6ff5,%eax,%eax
  401986:	89 44 24 18          	mov    %eax,0x18(%rsp)
  40198a:	8b 44 24 24          	mov    0x24(%rsp),%eax
  40198e:	69 c0 f0 42 00 00    	imul   $0x42f0,%eax,%eax
  401994:	89 44 24 24          	mov    %eax,0x24(%rsp)
  401998:	8b 44 24 1c          	mov    0x1c(%rsp),%eax
  40199c:	69 c0 c7 1d 00 00    	imul   $0x1dc7,%eax,%eax
  4019a2:	89 44 24 1c          	mov    %eax,0x1c(%rsp)
  4019a6:	8b 44 24 1c          	mov    0x1c(%rsp),%eax
  4019aa:	69 c0 52 c1 00 00    	imul   $0xc152,%eax,%eax
  4019b0:	89 44 24 1c          	mov    %eax,0x1c(%rsp)
  4019b4:	8b 44 24 14          	mov    0x14(%rsp),%eax
  4019b8:	69 c0 f1 b3 00 00    	imul   $0xb3f1,%eax,%eax
  4019be:	89 44 24 14          	mov    %eax,0x14(%rsp)
  4019c2:	8b 44 24 24          	mov    0x24(%rsp),%eax
  4019c6:	69 c0 da b5 00 00    	imul   $0xb5da,%eax,%eax
  4019cc:	89 44 24 24          	mov    %eax,0x24(%rsp)
  4019d0:	8b 44 24 14          	mov    0x14(%rsp),%eax
  4019d4:	69 c0 6b 65 00 00    	imul   $0x656b,%eax,%eax
  4019da:	89 44 24 14          	mov    %eax,0x14(%rsp)
  4019de:	8b 44 24 0c          	mov    0xc(%rsp),%eax
  4019e2:	69 c0 ab fe 00 00    	imul   $0xfeab,%eax,%eax
  4019e8:	89 44 24 0c          	mov    %eax,0xc(%rsp)
  4019ec:	8b 44 24 24          	mov    0x24(%rsp),%eax
  4019f0:	69 c0 43 b9 00 00    	imul   $0xb943,%eax,%eax
  4019f6:	89 44 24 24          	mov    %eax,0x24(%rsp)
  4019fa:	8b 44 24 24          	mov    0x24(%rsp),%eax
  4019fe:	69 c0 bc 30 00 00    	imul   $0x30bc,%eax,%eax
  401a04:	89 44 24 24          	mov    %eax,0x24(%rsp)
  401a08:	8b 44 24 24          	mov    0x24(%rsp),%eax
  401a0c:	69 c0 7d 6a 00 00    	imul   $0x6a7d,%eax,%eax
  401a12:	89 44 24 24          	mov    %eax,0x24(%rsp)
  401a16:	8b 44 24 04          	mov    0x4(%rsp),%eax
  401a1a:	69 c0 1a fa 00 00    	imul   $0xfa1a,%eax,%eax
  401a20:	89 44 24 04          	mov    %eax,0x4(%rsp)
  401a24:	8b 44 24 20          	mov    0x20(%rsp),%eax
  401a28:	69 c0 75 d9 00 00    	imul   $0xd975,%eax,%eax
  401a2e:	89 44 24 20          	mov    %eax,0x20(%rsp)
  401a32:	8b 04 24             	mov    (%rsp),%eax
  401a35:	69 c0 fc bc 00 00    	imul   $0xbcfc,%eax,%eax
  401a3b:	89 04 24             	mov    %eax,(%rsp)
  401a3e:	8b 44 24 08          	mov    0x8(%rsp),%eax
  401a42:	69 c0 1a 01 00 00    	imul   $0x11a,%eax,%eax
  401a48:	89 44 24 08          	mov    %eax,0x8(%rsp)
  401a4c:	8b 44 24 1c          	mov    0x1c(%rsp),%eax
  401a50:	69 c0 b3 67 00 00    	imul   $0x67b3,%eax,%eax
  401a56:	89 44 24 1c          	mov    %eax,0x1c(%rsp)
  401a5a:	ba 00 00 00 00       	mov    $0x0,%edx
  401a5f:	b8 00 00 00 00       	mov    $0x0,%eax
  401a64:	eb 0a                	jmp    401a70 <scramble+0x581>
  401a66:	89 d1                	mov    %edx,%ecx
  401a68:	8b 0c 8c             	mov    (%rsp,%rcx,4),%ecx
  401a6b:	01 c8                	add    %ecx,%eax
  401a6d:	83 c2 01             	add    $0x1,%edx
  401a70:	83 fa 09             	cmp    $0x9,%edx
  401a73:	76 f1                	jbe    401a66 <scramble+0x577>
  401a75:	48 8b 74 24 28       	mov    0x28(%rsp),%rsi
  401a7a:	64 48 33 34 25 28 00 	xor    %fs:0x28,%rsi
  401a81:	00 00 
  401a83:	74 05                	je     401a8a <scramble+0x59b>
  401a85:	e8 96 f3 ff ff       	callq  400e20 <__stack_chk_fail@plt>
  401a8a:	48 83 c4 38          	add    $0x38,%rsp
  401a8e:	c3                   	retq   

0000000000401a8f <getbuf>:
  401a8f:	48 83 ec 48          	sub    $0x48,%rsp
  401a93:	48 89 e7             	mov    %rsp,%rdi
  401a96:	e8 c2 04 00 00       	callq  401f5d <Gets>
  401a9b:	b8 01 00 00 00       	mov    $0x1,%eax
  401aa0:	48 83 c4 48          	add    $0x48,%rsp
  401aa4:	c3                   	retq   

0000000000401aa5 <touch1>:
  401aa5:	48 83 ec 08          	sub    $0x8,%rsp
  401aa9:	bf 04 00 00 00       	mov    $0x4,%edi
  401aae:	e8 dd f3 ff ff       	callq  400e90 <srand@plt>
  401ab3:	e8 18 f5 ff ff       	callq  400fd0 <rand@plt>
  401ab8:	89 c1                	mov    %eax,%ecx
  401aba:	ba e9 a2 8b 2e       	mov    $0x2e8ba2e9,%edx
  401abf:	f7 ea                	imul   %edx
  401ac1:	d1 fa                	sar    %edx
  401ac3:	89 c8                	mov    %ecx,%eax
  401ac5:	c1 f8 1f             	sar    $0x1f,%eax
  401ac8:	29 c2                	sub    %eax,%edx
  401aca:	8d 04 92             	lea    (%rdx,%rdx,4),%eax
  401acd:	8d 04 42             	lea    (%rdx,%rax,2),%eax
  401ad0:	29 c1                	sub    %eax,%ecx
  401ad2:	83 f9 02             	cmp    $0x2,%ecx
  401ad5:	74 20                	je     401af7 <touch1+0x52>
  401ad7:	c7 05 5b 3a 20 00 01 	movl   $0x1,0x203a5b(%rip)        # 60553c <vlevel>
  401ade:	00 00 00 
  401ae1:	bf cb 38 40 00       	mov    $0x4038cb,%edi
  401ae6:	e8 15 f3 ff ff       	callq  400e00 <puts@plt>
  401aeb:	bf 01 00 00 00       	mov    $0x1,%edi
  401af0:	e8 a8 06 00 00       	callq  40219d <validate>
  401af5:	eb 14                	jmp    401b0b <touch1+0x66>
  401af7:	bf f8 38 40 00       	mov    $0x4038f8,%edi
  401afc:	e8 ff f2 ff ff       	callq  400e00 <puts@plt>
  401b01:	bf 01 00 00 00       	mov    $0x1,%edi
  401b06:	e8 54 07 00 00       	callq  40225f <fail>
  401b0b:	bf 00 00 00 00       	mov    $0x0,%edi
  401b10:	e8 8b f4 ff ff       	callq  400fa0 <exit@plt>

0000000000401b15 <touch2>:
  401b15:	48 83 ec 08          	sub    $0x8,%rsp
  401b19:	c7 05 19 3a 20 00 02 	movl   $0x2,0x203a19(%rip)        # 60553c <vlevel>
  401b20:	00 00 00 
  401b23:	8b 05 1b 3a 20 00    	mov    0x203a1b(%rip),%eax        # 605544 <cookie>
  401b29:	39 f8                	cmp    %edi,%eax
  401b2b:	75 2b                	jne    401b58 <touch2+0x43>
  401b2d:	6b c0 03             	imul   $0x3,%eax,%eax
  401b30:	39 f0                	cmp    %esi,%eax
  401b32:	75 24                	jne    401b58 <touch2+0x43>
  401b34:	89 f1                	mov    %esi,%ecx
  401b36:	89 fa                	mov    %edi,%edx
  401b38:	be 40 39 40 00       	mov    $0x403940,%esi
  401b3d:	bf 01 00 00 00       	mov    $0x1,%edi
  401b42:	b8 00 00 00 00       	mov    $0x0,%eax
  401b47:	e8 04 f4 ff ff       	callq  400f50 <__printf_chk@plt>
  401b4c:	bf 02 00 00 00       	mov    $0x2,%edi
  401b51:	e8 47 06 00 00       	callq  40219d <validate>
  401b56:	eb 22                	jmp    401b7a <touch2+0x65>
  401b58:	89 f1                	mov    %esi,%ecx
  401b5a:	89 fa                	mov    %edi,%edx
  401b5c:	be 70 39 40 00       	mov    $0x403970,%esi
  401b61:	bf 01 00 00 00       	mov    $0x1,%edi
  401b66:	b8 00 00 00 00       	mov    $0x0,%eax
  401b6b:	e8 e0 f3 ff ff       	callq  400f50 <__printf_chk@plt>
  401b70:	bf 02 00 00 00       	mov    $0x2,%edi
  401b75:	e8 e5 06 00 00       	callq  40225f <fail>
  401b7a:	bf 00 00 00 00       	mov    $0x0,%edi
  401b7f:	e8 1c f4 ff ff       	callq  400fa0 <exit@plt>

0000000000401b84 <hexmatch>:
  401b84:	41 54                	push   %r12
  401b86:	55                   	push   %rbp
  401b87:	53                   	push   %rbx
  401b88:	48 83 c4 80          	add    $0xffffffffffffff80,%rsp
  401b8c:	64 48 8b 04 25 28 00 	mov    %fs:0x28,%rax
  401b93:	00 00 
  401b95:	48 89 44 24 78       	mov    %rax,0x78(%rsp)
  401b9a:	31 c0                	xor    %eax,%eax
  401b9c:	48 85 f6             	test   %rsi,%rsi
  401b9f:	74 6e                	je     401c0f <hexmatch+0x8b>
  401ba1:	89 fd                	mov    %edi,%ebp
  401ba3:	48 89 f3             	mov    %rsi,%rbx
  401ba6:	e8 55 f3 ff ff       	callq  400f00 <random@plt>
  401bab:	48 89 c1             	mov    %rax,%rcx
  401bae:	48 ba 05 79 4a 90 a7 	movabs $0x4a7904a7904a7905,%rdx
  401bb5:	04 79 4a 
  401bb8:	48 f7 ea             	imul   %rdx
  401bbb:	48 c1 fa 05          	sar    $0x5,%rdx
  401bbf:	48 89 c8             	mov    %rcx,%rax
  401bc2:	48 c1 f8 3f          	sar    $0x3f,%rax
  401bc6:	48 29 c2             	sub    %rax,%rdx
  401bc9:	48 6b d2 6e          	imul   $0x6e,%rdx,%rdx
  401bcd:	48 29 d1             	sub    %rdx,%rcx
  401bd0:	4c 8d 24 0c          	lea    (%rsp,%rcx,1),%r12
  401bd4:	41 89 e8             	mov    %ebp,%r8d
  401bd7:	b9 e8 38 40 00       	mov    $0x4038e8,%ecx
  401bdc:	48 c7 c2 ff ff ff ff 	mov    $0xffffffffffffffff,%rdx
  401be3:	be 01 00 00 00       	mov    $0x1,%esi
  401be8:	4c 89 e7             	mov    %r12,%rdi
  401beb:	b8 00 00 00 00       	mov    $0x0,%eax
  401bf0:	e8 eb f3 ff ff       	callq  400fe0 <__sprintf_chk@plt>
  401bf5:	ba 09 00 00 00       	mov    $0x9,%edx
  401bfa:	4c 89 e6             	mov    %r12,%rsi
  401bfd:	48 89 df             	mov    %rbx,%rdi
  401c00:	e8 db f1 ff ff       	callq  400de0 <strncmp@plt>
  401c05:	85 c0                	test   %eax,%eax
  401c07:	0f 94 c0             	sete   %al
  401c0a:	0f b6 c0             	movzbl %al,%eax
  401c0d:	eb 05                	jmp    401c14 <hexmatch+0x90>
  401c0f:	b8 00 00 00 00       	mov    $0x0,%eax
  401c14:	48 8b 74 24 78       	mov    0x78(%rsp),%rsi
  401c19:	64 48 33 34 25 28 00 	xor    %fs:0x28,%rsi
  401c20:	00 00 
  401c22:	74 05                	je     401c29 <hexmatch+0xa5>
  401c24:	e8 f7 f1 ff ff       	callq  400e20 <__stack_chk_fail@plt>
  401c29:	48 83 ec 80          	sub    $0xffffffffffffff80,%rsp
  401c2d:	5b                   	pop    %rbx
  401c2e:	5d                   	pop    %rbp
  401c2f:	41 5c                	pop    %r12
  401c31:	c3                   	retq   

0000000000401c32 <checkmult>:
  401c32:	41 54                	push   %r12
  401c34:	55                   	push   %rbp
  401c35:	53                   	push   %rbx
  401c36:	48 83 ec 50          	sub    $0x50,%rsp
  401c3a:	64 48 8b 04 25 28 00 	mov    %fs:0x28,%rax
  401c41:	00 00 
  401c43:	48 89 44 24 48       	mov    %rax,0x48(%rsp)
  401c48:	31 c0                	xor    %eax,%eax
  401c4a:	48 85 f6             	test   %rsi,%rsi
  401c4d:	0f 84 96 00 00 00    	je     401ce9 <checkmult+0xb7>
  401c53:	41 89 fc             	mov    %edi,%r12d
  401c56:	48 89 f5             	mov    %rsi,%rbp
  401c59:	e8 a2 f2 ff ff       	callq  400f00 <random@plt>
  401c5e:	48 89 c1             	mov    %rax,%rcx
  401c61:	48 ba 89 88 88 88 88 	movabs $0x8888888888888889,%rdx
  401c68:	88 88 88 
  401c6b:	48 f7 ea             	imul   %rdx
  401c6e:	48 01 ca             	add    %rcx,%rdx
  401c71:	48 c1 fa 05          	sar    $0x5,%rdx
  401c75:	48 89 c8             	mov    %rcx,%rax
  401c78:	48 c1 f8 3f          	sar    $0x3f,%rax
  401c7c:	48 29 c2             	sub    %rax,%rdx
  401c7f:	48 8d 04 95 00 00 00 	lea    0x0(,%rdx,4),%rax
  401c86:	00 
  401c87:	48 c1 e2 06          	shl    $0x6,%rdx
  401c8b:	48 29 c2             	sub    %rax,%rdx
  401c8e:	48 29 d1             	sub    %rdx,%rcx
  401c91:	48 8d 1c 0c          	lea    (%rsp,%rcx,1),%rbx
  401c95:	45 89 e0             	mov    %r12d,%r8d
  401c98:	b9 e8 38 40 00       	mov    $0x4038e8,%ecx
  401c9d:	48 c7 c2 ff ff ff ff 	mov    $0xffffffffffffffff,%rdx
  401ca4:	be 01 00 00 00       	mov    $0x1,%esi
  401ca9:	48 89 df             	mov    %rbx,%rdi
  401cac:	b8 00 00 00 00       	mov    $0x0,%eax
  401cb1:	e8 2a f3 ff ff       	callq  400fe0 <__sprintf_chk@plt>
  401cb6:	ba 00 00 00 00       	mov    $0x0,%edx
  401cbb:	eb 20                	jmp    401cdd <checkmult+0xab>
  401cbd:	48 63 ca             	movslq %edx,%rcx
  401cc0:	b8 07 00 00 00       	mov    $0x7,%eax
  401cc5:	29 d0                	sub    %edx,%eax
  401cc7:	48 98                	cltq   
  401cc9:	0f be 34 0b          	movsbl (%rbx,%rcx,1),%esi
  401ccd:	0f be 04 03          	movsbl (%rbx,%rax,1),%eax
  401cd1:	0f af c6             	imul   %esi,%eax
  401cd4:	39 44 8d 00          	cmp    %eax,0x0(%rbp,%rcx,4)
  401cd8:	75 16                	jne    401cf0 <checkmult+0xbe>
  401cda:	83 c2 01             	add    $0x1,%edx
  401cdd:	83 fa 07             	cmp    $0x7,%edx
  401ce0:	7e db                	jle    401cbd <checkmult+0x8b>
  401ce2:	b8 01 00 00 00       	mov    $0x1,%eax
  401ce7:	eb 0c                	jmp    401cf5 <checkmult+0xc3>
  401ce9:	b8 00 00 00 00       	mov    $0x0,%eax
  401cee:	eb 05                	jmp    401cf5 <checkmult+0xc3>
  401cf0:	b8 00 00 00 00       	mov    $0x0,%eax
  401cf5:	48 8b 7c 24 48       	mov    0x48(%rsp),%rdi
  401cfa:	64 48 33 3c 25 28 00 	xor    %fs:0x28,%rdi
  401d01:	00 00 
  401d03:	74 05                	je     401d0a <checkmult+0xd8>
  401d05:	e8 16 f1 ff ff       	callq  400e20 <__stack_chk_fail@plt>
  401d0a:	48 83 c4 50          	add    $0x50,%rsp
  401d0e:	5b                   	pop    %rbx
  401d0f:	5d                   	pop    %rbp
  401d10:	41 5c                	pop    %r12
  401d12:	c3                   	retq   

0000000000401d13 <touch3>:
  401d13:	55                   	push   %rbp
  401d14:	53                   	push   %rbx
  401d15:	48 83 ec 08          	sub    $0x8,%rsp
  401d19:	48 89 fb             	mov    %rdi,%rbx
  401d1c:	48 89 f5             	mov    %rsi,%rbp
  401d1f:	c7 05 13 38 20 00 03 	movl   $0x3,0x203813(%rip)        # 60553c <vlevel>
  401d26:	00 00 00 
  401d29:	48 89 fe             	mov    %rdi,%rsi
  401d2c:	8b 3d 12 38 20 00    	mov    0x203812(%rip),%edi        # 605544 <cookie>
  401d32:	e8 4d fe ff ff       	callq  401b84 <hexmatch>
  401d37:	85 c0                	test   %eax,%eax
  401d39:	74 28                	je     401d63 <touch3+0x50>
  401d3b:	48 89 ee             	mov    %rbp,%rsi
  401d3e:	8b 3d 00 38 20 00    	mov    0x203800(%rip),%edi        # 605544 <cookie>
  401d44:	e8 e9 fe ff ff       	callq  401c32 <checkmult>
  401d49:	85 c0                	test   %eax,%eax
  401d4b:	74 16                	je     401d63 <touch3+0x50>
  401d4d:	bf a0 39 40 00       	mov    $0x4039a0,%edi
  401d52:	e8 a9 f0 ff ff       	callq  400e00 <puts@plt>
  401d57:	bf 03 00 00 00       	mov    $0x3,%edi
  401d5c:	e8 3c 04 00 00       	callq  40219d <validate>
  401d61:	eb 7a                	jmp    401ddd <touch3+0xca>
  401d63:	48 89 e9             	mov    %rbp,%rcx
  401d66:	48 89 da             	mov    %rbx,%rdx
  401d69:	be d8 39 40 00       	mov    $0x4039d8,%esi
  401d6e:	bf 01 00 00 00       	mov    $0x1,%edi
  401d73:	b8 00 00 00 00       	mov    $0x0,%eax
  401d78:	e8 d3 f1 ff ff       	callq  400f50 <__printf_chk@plt>
  401d7d:	bf 38 3a 40 00       	mov    $0x403a38,%edi
  401d82:	e8 79 f0 ff ff       	callq  400e00 <puts@plt>
  401d87:	48 8b 3d 52 37 20 00 	mov    0x203752(%rip),%rdi        # 6054e0 <stdout@@GLIBC_2.2.5>
  401d8e:	e8 7d f1 ff ff       	callq  400f10 <fflush@plt>
  401d93:	bb 00 00 00 00       	mov    $0x0,%ebx
  401d98:	eb 2a                	jmp    401dc4 <touch3+0xb1>
  401d9a:	48 63 c3             	movslq %ebx,%rax
  401d9d:	8b 54 85 00          	mov    0x0(%rbp,%rax,4),%edx
  401da1:	be ed 38 40 00       	mov    $0x4038ed,%esi
  401da6:	bf 01 00 00 00       	mov    $0x1,%edi
  401dab:	b8 00 00 00 00       	mov    $0x0,%eax
  401db0:	e8 9b f1 ff ff       	callq  400f50 <__printf_chk@plt>
  401db5:	48 8b 3d 24 37 20 00 	mov    0x203724(%rip),%rdi        # 6054e0 <stdout@@GLIBC_2.2.5>
  401dbc:	e8 4f f1 ff ff       	callq  400f10 <fflush@plt>
  401dc1:	83 c3 01             	add    $0x1,%ebx
  401dc4:	83 fb 07             	cmp    $0x7,%ebx
  401dc7:	7e d1                	jle    401d9a <touch3+0x87>
  401dc9:	bf 0a 00 00 00       	mov    $0xa,%edi
  401dce:	e8 cd ef ff ff       	callq  400da0 <putchar@plt>
  401dd3:	bf 03 00 00 00       	mov    $0x3,%edi
  401dd8:	e8 82 04 00 00       	callq  40225f <fail>
  401ddd:	bf 00 00 00 00       	mov    $0x0,%edi
  401de2:	e8 b9 f1 ff ff       	callq  400fa0 <exit@plt>

0000000000401de7 <test>:
  401de7:	48 83 ec 08          	sub    $0x8,%rsp
  401deb:	b8 00 00 00 00       	mov    $0x0,%eax
  401df0:	e8 9a fc ff ff       	callq  401a8f <getbuf>
  401df5:	89 c2                	mov    %eax,%edx
  401df7:	be 68 3a 40 00       	mov    $0x403a68,%esi
  401dfc:	bf 01 00 00 00       	mov    $0x1,%edi
  401e01:	b8 00 00 00 00       	mov    $0x0,%eax
  401e06:	e8 45 f1 ff ff       	callq  400f50 <__printf_chk@plt>
  401e0b:	48 83 c4 08          	add    $0x8,%rsp
  401e0f:	c3                   	retq   

0000000000401e10 <start_farm>:
  401e10:	b8 01 00 00 00       	mov    $0x1,%eax
  401e15:	c3                   	retq   

0000000000401e16 <addval_252>:
  401e16:	8d 87 5b 90 90 c3    	lea    -0x3c6f6fa5(%rdi),%eax
  401e1c:	c3                   	retq   

0000000000401e1d <getval_443>:
  401e1d:	b8 48 89 d1 c7       	mov    $0xc7d18948,%eax
  401e22:	c3                   	retq   

0000000000401e23 <addval_248>:
  401e23:	8d 87 ff 48 89 df    	lea    -0x2076b701(%rdi),%eax
  401e29:	c3                   	retq   

0000000000401e2a <getval_184>:
  401e2a:	b8 48 89 df 90       	mov    $0x90df8948,%eax
  401e2f:	c3                   	retq   

0000000000401e30 <getval_236>:
  401e30:	b8 48 89 df c2       	mov    $0xc2df8948,%eax
  401e35:	c3                   	retq   

0000000000401e36 <setval_497>:
  401e36:	c7 07 48 01 da c3    	movl   $0xc3da0148,(%rdi)
  401e3c:	c3                   	retq   

0000000000401e3d <getval_218>:
  401e3d:	b8 48 89 ce c3       	mov    $0xc3ce8948,%eax
  401e42:	c3                   	retq   

0000000000401e43 <setval_239>:
  401e43:	c7 07 4a 89 ce 90    	movl   $0x90ce894a,(%rdi)
  401e49:	c3                   	retq   

0000000000401e4a <addval_395>:
  401e4a:	8d 87 e1 53 5a c3    	lea    -0x3ca5ac1f(%rdi),%eax
  401e50:	c3                   	retq   

0000000000401e51 <setval_364>:
  401e51:	c7 07 49 01 da 90    	movl   $0x90da0149,(%rdi)
  401e57:	c3                   	retq   

0000000000401e58 <addval_273>:
  401e58:	8d 87 48 89 ce 90    	lea    -0x6f3176b8(%rdi),%eax
  401e5e:	c3                   	retq   

0000000000401e5f <addval_490>:
  401e5f:	8d 87 48 89 d1 c3    	lea    -0x3c2e76b8(%rdi),%eax
  401e65:	c3                   	retq   

0000000000401e66 <getval_177>:
  401e66:	b8 58 89 ce c3       	mov    $0xc3ce8958,%eax
  401e6b:	c3                   	retq   

0000000000401e6c <setval_410>:
  401e6c:	c7 07 4a 90 90 90    	movl   $0x9090904a,(%rdi)
  401e72:	c3                   	retq   

0000000000401e73 <getval_311>:
  401e73:	b8 8d 48 01 da       	mov    $0xda01488d,%eax
  401e78:	c3                   	retq   

0000000000401e79 <setval_356>:
  401e79:	c7 07 92 4a 90 90    	movl   $0x90904a92,(%rdi)
  401e7f:	c3                   	retq   

0000000000401e80 <addval_126>:
  401e80:	8d 87 48 01 da c7    	lea    -0x3825feb8(%rdi),%eax
  401e86:	c3                   	retq   

0000000000401e87 <addval_471>:
  401e87:	8d 87 5b 92 90 90    	lea    -0x6f6f6da5(%rdi),%eax
  401e8d:	c3                   	retq   

0000000000401e8e <getval_321>:
  401e8e:	b8 48 81 d1 90       	mov    $0x90d18148,%eax
  401e93:	c3                   	retq   

0000000000401e94 <addval_336>:
  401e94:	8d 87 89 48 89 d1    	lea    -0x2e76b777(%rdi),%eax
  401e9a:	c3                   	retq   

0000000000401e9b <addval_442>:
  401e9b:	8d 87 41 e8 5b c3    	lea    -0x3ca417bf(%rdi),%eax
  401ea1:	c3                   	retq   

0000000000401ea2 <addval_354>:
  401ea2:	8d 87 cc 31 5a 90    	lea    -0x6fa5ce34(%rdi),%eax
  401ea8:	c3                   	retq   

0000000000401ea9 <setval_158>:
  401ea9:	c7 07 5b 92 90 90    	movl   $0x9090925b,(%rdi)
  401eaf:	c3                   	retq   

0000000000401eb0 <setval_366>:
  401eb0:	c7 07 48 09 df 90    	movl   $0x90df0948,(%rdi)
  401eb6:	c3                   	retq   

0000000000401eb7 <end_farm>:
  401eb7:	b8 01 00 00 00       	mov    $0x1,%eax
  401ebc:	c3                   	retq   

0000000000401ebd <save_char>:
  401ebd:	8b 05 a1 42 20 00    	mov    0x2042a1(%rip),%eax        # 606164 <gets_cnt>
  401ec3:	3d ff 03 00 00       	cmp    $0x3ff,%eax
  401ec8:	7f 49                	jg     401f13 <save_char+0x56>
  401eca:	8d 14 40             	lea    (%rax,%rax,2),%edx
  401ecd:	89 f9                	mov    %edi,%ecx
  401ecf:	c0 e9 04             	shr    $0x4,%cl
  401ed2:	83 e1 0f             	and    $0xf,%ecx
  401ed5:	0f b6 b1 90 3d 40 00 	movzbl 0x403d90(%rcx),%esi
  401edc:	48 63 ca             	movslq %edx,%rcx
  401edf:	40 88 b1 60 55 60 00 	mov    %sil,0x605560(%rcx)
  401ee6:	8d 4a 01             	lea    0x1(%rdx),%ecx
  401ee9:	83 e7 0f             	and    $0xf,%edi
  401eec:	0f b6 b7 90 3d 40 00 	movzbl 0x403d90(%rdi),%esi
  401ef3:	48 63 c9             	movslq %ecx,%rcx
  401ef6:	40 88 b1 60 55 60 00 	mov    %sil,0x605560(%rcx)
  401efd:	83 c2 02             	add    $0x2,%edx
  401f00:	48 63 d2             	movslq %edx,%rdx
  401f03:	c6 82 60 55 60 00 20 	movb   $0x20,0x605560(%rdx)
  401f0a:	83 c0 01             	add    $0x1,%eax
  401f0d:	89 05 51 42 20 00    	mov    %eax,0x204251(%rip)        # 606164 <gets_cnt>
  401f13:	f3 c3                	repz retq 

0000000000401f15 <save_term>:
  401f15:	8b 05 49 42 20 00    	mov    0x204249(%rip),%eax        # 606164 <gets_cnt>
  401f1b:	8d 04 40             	lea    (%rax,%rax,2),%eax
  401f1e:	48 98                	cltq   
  401f20:	c6 80 60 55 60 00 00 	movb   $0x0,0x605560(%rax)
  401f27:	c3                   	retq   

0000000000401f28 <check_fail>:
  401f28:	48 83 ec 08          	sub    $0x8,%rsp
  401f2c:	0f be 15 35 42 20 00 	movsbl 0x204235(%rip),%edx        # 606168 <target_prefix>
  401f33:	41 b8 60 55 60 00    	mov    $0x605560,%r8d
  401f39:	8b 0d f9 35 20 00    	mov    0x2035f9(%rip),%ecx        # 605538 <check_level>
  401f3f:	be 8b 3a 40 00       	mov    $0x403a8b,%esi
  401f44:	bf 01 00 00 00       	mov    $0x1,%edi
  401f49:	b8 00 00 00 00       	mov    $0x0,%eax
  401f4e:	e8 fd ef ff ff       	callq  400f50 <__printf_chk@plt>
  401f53:	bf 01 00 00 00       	mov    $0x1,%edi
  401f58:	e8 43 f0 ff ff       	callq  400fa0 <exit@plt>

0000000000401f5d <Gets>:
  401f5d:	41 54                	push   %r12
  401f5f:	55                   	push   %rbp
  401f60:	53                   	push   %rbx
  401f61:	49 89 fc             	mov    %rdi,%r12
  401f64:	c7 05 f6 41 20 00 00 	movl   $0x0,0x2041f6(%rip)        # 606164 <gets_cnt>
  401f6b:	00 00 00 
  401f6e:	48 89 fb             	mov    %rdi,%rbx
  401f71:	eb 11                	jmp    401f84 <Gets+0x27>
  401f73:	48 8d 6b 01          	lea    0x1(%rbx),%rbp
  401f77:	88 03                	mov    %al,(%rbx)
  401f79:	0f b6 f8             	movzbl %al,%edi
  401f7c:	e8 3c ff ff ff       	callq  401ebd <save_char>
  401f81:	48 89 eb             	mov    %rbp,%rbx
  401f84:	48 8b 3d a5 35 20 00 	mov    0x2035a5(%rip),%rdi        # 605530 <infile>
  401f8b:	e8 90 ef ff ff       	callq  400f20 <_IO_getc@plt>
  401f90:	83 f8 ff             	cmp    $0xffffffff,%eax
  401f93:	75 de                	jne    401f73 <Gets+0x16>
  401f95:	c6 03 00             	movb   $0x0,(%rbx)
  401f98:	b8 00 00 00 00       	mov    $0x0,%eax
  401f9d:	e8 73 ff ff ff       	callq  401f15 <save_term>
  401fa2:	4c 89 e0             	mov    %r12,%rax
  401fa5:	5b                   	pop    %rbx
  401fa6:	5d                   	pop    %rbp
  401fa7:	41 5c                	pop    %r12
  401fa9:	c3                   	retq   

0000000000401faa <notify_server>:
  401faa:	53                   	push   %rbx
  401fab:	48 81 ec 10 40 00 00 	sub    $0x4010,%rsp
  401fb2:	64 48 8b 04 25 28 00 	mov    %fs:0x28,%rax
  401fb9:	00 00 
  401fbb:	48 89 84 24 08 40 00 	mov    %rax,0x4008(%rsp)
  401fc2:	00 
  401fc3:	31 c0                	xor    %eax,%eax
  401fc5:	83 3d 7c 35 20 00 00 	cmpl   $0x0,0x20357c(%rip)        # 605548 <is_checker>
  401fcc:	0f 85 aa 01 00 00    	jne    40217c <notify_server+0x1d2>
  401fd2:	89 fb                	mov    %edi,%ebx
  401fd4:	8b 05 8a 41 20 00    	mov    0x20418a(%rip),%eax        # 606164 <gets_cnt>
  401fda:	83 c0 64             	add    $0x64,%eax
  401fdd:	3d 00 20 00 00       	cmp    $0x2000,%eax
  401fe2:	7e 1e                	jle    402002 <notify_server+0x58>
  401fe4:	be c0 3b 40 00       	mov    $0x403bc0,%esi
  401fe9:	bf 01 00 00 00       	mov    $0x1,%edi
  401fee:	b8 00 00 00 00       	mov    $0x0,%eax
  401ff3:	e8 58 ef ff ff       	callq  400f50 <__printf_chk@plt>
  401ff8:	bf 01 00 00 00       	mov    $0x1,%edi
  401ffd:	e8 9e ef ff ff       	callq  400fa0 <exit@plt>
  402002:	0f be 05 5f 41 20 00 	movsbl 0x20415f(%rip),%eax        # 606168 <target_prefix>
  402009:	83 3d b8 34 20 00 00 	cmpl   $0x0,0x2034b8(%rip)        # 6054c8 <notify>
  402010:	74 08                	je     40201a <notify_server+0x70>
  402012:	8b 15 28 35 20 00    	mov    0x203528(%rip),%edx        # 605540 <authkey>
  402018:	eb 05                	jmp    40201f <notify_server+0x75>
  40201a:	ba ff ff ff ff       	mov    $0xffffffff,%edx
  40201f:	85 db                	test   %ebx,%ebx
  402021:	74 08                	je     40202b <notify_server+0x81>
  402023:	41 b9 a1 3a 40 00    	mov    $0x403aa1,%r9d
  402029:	eb 06                	jmp    402031 <notify_server+0x87>
  40202b:	41 b9 a6 3a 40 00    	mov    $0x403aa6,%r9d
  402031:	68 60 55 60 00       	pushq  $0x605560
  402036:	56                   	push   %rsi
  402037:	50                   	push   %rax
  402038:	52                   	push   %rdx
  402039:	44 8b 05 48 31 20 00 	mov    0x203148(%rip),%r8d        # 605188 <target_id>
  402040:	b9 ab 3a 40 00       	mov    $0x403aab,%ecx
  402045:	ba 00 20 00 00       	mov    $0x2000,%edx
  40204a:	be 01 00 00 00       	mov    $0x1,%esi
  40204f:	48 8d 7c 24 20       	lea    0x20(%rsp),%rdi
  402054:	b8 00 00 00 00       	mov    $0x0,%eax
  402059:	e8 82 ef ff ff       	callq  400fe0 <__sprintf_chk@plt>
  40205e:	48 83 c4 20          	add    $0x20,%rsp
  402062:	83 3d 5f 34 20 00 00 	cmpl   $0x0,0x20345f(%rip)        # 6054c8 <notify>
  402069:	0f 84 81 00 00 00    	je     4020f0 <notify_server+0x146>
  40206f:	85 db                	test   %ebx,%ebx
  402071:	74 6e                	je     4020e1 <notify_server+0x137>
  402073:	4c 8d 8c 24 00 20 00 	lea    0x2000(%rsp),%r9
  40207a:	00 
  40207b:	41 b8 00 00 00 00    	mov    $0x0,%r8d
  402081:	48 89 e1             	mov    %rsp,%rcx
  402084:	48 8b 15 05 31 20 00 	mov    0x203105(%rip),%rdx        # 605190 <lab>
  40208b:	48 8b 35 06 31 20 00 	mov    0x203106(%rip),%rsi        # 605198 <course>
  402092:	48 8b 3d e7 30 20 00 	mov    0x2030e7(%rip),%rdi        # 605180 <user_id>
  402099:	e8 ef 10 00 00       	callq  40318d <driver_post>
  40209e:	85 c0                	test   %eax,%eax
  4020a0:	79 26                	jns    4020c8 <notify_server+0x11e>
  4020a2:	48 8d 94 24 00 20 00 	lea    0x2000(%rsp),%rdx
  4020a9:	00 
  4020aa:	be c7 3a 40 00       	mov    $0x403ac7,%esi
  4020af:	bf 01 00 00 00       	mov    $0x1,%edi
  4020b4:	b8 00 00 00 00       	mov    $0x0,%eax
  4020b9:	e8 92 ee ff ff       	callq  400f50 <__printf_chk@plt>
  4020be:	bf 01 00 00 00       	mov    $0x1,%edi
  4020c3:	e8 d8 ee ff ff       	callq  400fa0 <exit@plt>
  4020c8:	bf f0 3b 40 00       	mov    $0x403bf0,%edi
  4020cd:	e8 2e ed ff ff       	callq  400e00 <puts@plt>
  4020d2:	bf d3 3a 40 00       	mov    $0x403ad3,%edi
  4020d7:	e8 24 ed ff ff       	callq  400e00 <puts@plt>
  4020dc:	e9 9b 00 00 00       	jmpq   40217c <notify_server+0x1d2>
  4020e1:	bf dd 3a 40 00       	mov    $0x403add,%edi
  4020e6:	e8 15 ed ff ff       	callq  400e00 <puts@plt>
  4020eb:	e9 8c 00 00 00       	jmpq   40217c <notify_server+0x1d2>
  4020f0:	85 db                	test   %ebx,%ebx
  4020f2:	74 07                	je     4020fb <notify_server+0x151>
  4020f4:	ba a1 3a 40 00       	mov    $0x403aa1,%edx
  4020f9:	eb 05                	jmp    402100 <notify_server+0x156>
  4020fb:	ba a6 3a 40 00       	mov    $0x403aa6,%edx
  402100:	be 28 3c 40 00       	mov    $0x403c28,%esi
  402105:	bf 01 00 00 00       	mov    $0x1,%edi
  40210a:	b8 00 00 00 00       	mov    $0x0,%eax
  40210f:	e8 3c ee ff ff       	callq  400f50 <__printf_chk@plt>
  402114:	48 8b 15 65 30 20 00 	mov    0x203065(%rip),%rdx        # 605180 <user_id>
  40211b:	be e4 3a 40 00       	mov    $0x403ae4,%esi
  402120:	bf 01 00 00 00       	mov    $0x1,%edi
  402125:	b8 00 00 00 00       	mov    $0x0,%eax
  40212a:	e8 21 ee ff ff       	callq  400f50 <__printf_chk@plt>
  40212f:	48 8b 15 62 30 20 00 	mov    0x203062(%rip),%rdx        # 605198 <course>
  402136:	be f1 3a 40 00       	mov    $0x403af1,%esi
  40213b:	bf 01 00 00 00       	mov    $0x1,%edi
  402140:	b8 00 00 00 00       	mov    $0x0,%eax
  402145:	e8 06 ee ff ff       	callq  400f50 <__printf_chk@plt>
  40214a:	48 8b 15 3f 30 20 00 	mov    0x20303f(%rip),%rdx        # 605190 <lab>
  402151:	be fd 3a 40 00       	mov    $0x403afd,%esi
  402156:	bf 01 00 00 00       	mov    $0x1,%edi
  40215b:	b8 00 00 00 00       	mov    $0x0,%eax
  402160:	e8 eb ed ff ff       	callq  400f50 <__printf_chk@plt>
  402165:	48 89 e2             	mov    %rsp,%rdx
  402168:	be 06 3b 40 00       	mov    $0x403b06,%esi
  40216d:	bf 01 00 00 00       	mov    $0x1,%edi
  402172:	b8 00 00 00 00       	mov    $0x0,%eax
  402177:	e8 d4 ed ff ff       	callq  400f50 <__printf_chk@plt>
  40217c:	48 8b 84 24 08 40 00 	mov    0x4008(%rsp),%rax
  402183:	00 
  402184:	64 48 33 04 25 28 00 	xor    %fs:0x28,%rax
  40218b:	00 00 
  40218d:	74 05                	je     402194 <notify_server+0x1ea>
  40218f:	e8 8c ec ff ff       	callq  400e20 <__stack_chk_fail@plt>
  402194:	48 81 c4 10 40 00 00 	add    $0x4010,%rsp
  40219b:	5b                   	pop    %rbx
  40219c:	c3                   	retq   

000000000040219d <validate>:
  40219d:	53                   	push   %rbx
  40219e:	89 fb                	mov    %edi,%ebx
  4021a0:	83 3d a1 33 20 00 00 	cmpl   $0x0,0x2033a1(%rip)        # 605548 <is_checker>
  4021a7:	74 6b                	je     402214 <validate+0x77>
  4021a9:	39 3d 8d 33 20 00    	cmp    %edi,0x20338d(%rip)        # 60553c <vlevel>
  4021af:	74 14                	je     4021c5 <validate+0x28>
  4021b1:	bf 12 3b 40 00       	mov    $0x403b12,%edi
  4021b6:	e8 45 ec ff ff       	callq  400e00 <puts@plt>
  4021bb:	b8 00 00 00 00       	mov    $0x0,%eax
  4021c0:	e8 63 fd ff ff       	callq  401f28 <check_fail>
  4021c5:	8b 15 6d 33 20 00    	mov    0x20336d(%rip),%edx        # 605538 <check_level>
  4021cb:	39 d7                	cmp    %edx,%edi
  4021cd:	74 20                	je     4021ef <validate+0x52>
  4021cf:	89 f9                	mov    %edi,%ecx
  4021d1:	be 50 3c 40 00       	mov    $0x403c50,%esi
  4021d6:	bf 01 00 00 00       	mov    $0x1,%edi
  4021db:	b8 00 00 00 00       	mov    $0x0,%eax
  4021e0:	e8 6b ed ff ff       	callq  400f50 <__printf_chk@plt>
  4021e5:	b8 00 00 00 00       	mov    $0x0,%eax
  4021ea:	e8 39 fd ff ff       	callq  401f28 <check_fail>
  4021ef:	0f be 15 72 3f 20 00 	movsbl 0x203f72(%rip),%edx        # 606168 <target_prefix>
  4021f6:	41 b8 60 55 60 00    	mov    $0x605560,%r8d
  4021fc:	89 f9                	mov    %edi,%ecx
  4021fe:	be 30 3b 40 00       	mov    $0x403b30,%esi
  402203:	bf 01 00 00 00       	mov    $0x1,%edi
  402208:	b8 00 00 00 00       	mov    $0x0,%eax
  40220d:	e8 3e ed ff ff       	callq  400f50 <__printf_chk@plt>
  402212:	eb 49                	jmp    40225d <validate+0xc0>
  402214:	3b 3d 22 33 20 00    	cmp    0x203322(%rip),%edi        # 60553c <vlevel>
  40221a:	74 18                	je     402234 <validate+0x97>
  40221c:	bf 12 3b 40 00       	mov    $0x403b12,%edi
  402221:	e8 da eb ff ff       	callq  400e00 <puts@plt>
  402226:	89 de                	mov    %ebx,%esi
  402228:	bf 00 00 00 00       	mov    $0x0,%edi
  40222d:	e8 78 fd ff ff       	callq  401faa <notify_server>
  402232:	eb 29                	jmp    40225d <validate+0xc0>
  402234:	0f be 0d 2d 3f 20 00 	movsbl 0x203f2d(%rip),%ecx        # 606168 <target_prefix>
  40223b:	89 fa                	mov    %edi,%edx
  40223d:	be 78 3c 40 00       	mov    $0x403c78,%esi
  402242:	bf 01 00 00 00       	mov    $0x1,%edi
  402247:	b8 00 00 00 00       	mov    $0x0,%eax
  40224c:	e8 ff ec ff ff       	callq  400f50 <__printf_chk@plt>
  402251:	89 de                	mov    %ebx,%esi
  402253:	bf 01 00 00 00       	mov    $0x1,%edi
  402258:	e8 4d fd ff ff       	callq  401faa <notify_server>
  40225d:	5b                   	pop    %rbx
  40225e:	c3                   	retq   

000000000040225f <fail>:
  40225f:	48 83 ec 08          	sub    $0x8,%rsp
  402263:	83 3d de 32 20 00 00 	cmpl   $0x0,0x2032de(%rip)        # 605548 <is_checker>
  40226a:	74 0a                	je     402276 <fail+0x17>
  40226c:	b8 00 00 00 00       	mov    $0x0,%eax
  402271:	e8 b2 fc ff ff       	callq  401f28 <check_fail>
  402276:	89 fe                	mov    %edi,%esi
  402278:	bf 00 00 00 00       	mov    $0x0,%edi
  40227d:	e8 28 fd ff ff       	callq  401faa <notify_server>
  402282:	48 83 c4 08          	add    $0x8,%rsp
  402286:	c3                   	retq   

0000000000402287 <bushandler>:
  402287:	48 83 ec 08          	sub    $0x8,%rsp
  40228b:	83 3d b6 32 20 00 00 	cmpl   $0x0,0x2032b6(%rip)        # 605548 <is_checker>
  402292:	74 14                	je     4022a8 <bushandler+0x21>
  402294:	bf 45 3b 40 00       	mov    $0x403b45,%edi
  402299:	e8 62 eb ff ff       	callq  400e00 <puts@plt>
  40229e:	b8 00 00 00 00       	mov    $0x0,%eax
  4022a3:	e8 80 fc ff ff       	callq  401f28 <check_fail>
  4022a8:	bf b0 3c 40 00       	mov    $0x403cb0,%edi
  4022ad:	e8 4e eb ff ff       	callq  400e00 <puts@plt>
  4022b2:	bf 4f 3b 40 00       	mov    $0x403b4f,%edi
  4022b7:	e8 44 eb ff ff       	callq  400e00 <puts@plt>
  4022bc:	be 00 00 00 00       	mov    $0x0,%esi
  4022c1:	bf 00 00 00 00       	mov    $0x0,%edi
  4022c6:	e8 df fc ff ff       	callq  401faa <notify_server>
  4022cb:	bf 01 00 00 00       	mov    $0x1,%edi
  4022d0:	e8 cb ec ff ff       	callq  400fa0 <exit@plt>

00000000004022d5 <seghandler>:
  4022d5:	48 83 ec 08          	sub    $0x8,%rsp
  4022d9:	83 3d 68 32 20 00 00 	cmpl   $0x0,0x203268(%rip)        # 605548 <is_checker>
  4022e0:	74 14                	je     4022f6 <seghandler+0x21>
  4022e2:	bf 65 3b 40 00       	mov    $0x403b65,%edi
  4022e7:	e8 14 eb ff ff       	callq  400e00 <puts@plt>
  4022ec:	b8 00 00 00 00       	mov    $0x0,%eax
  4022f1:	e8 32 fc ff ff       	callq  401f28 <check_fail>
  4022f6:	bf d0 3c 40 00       	mov    $0x403cd0,%edi
  4022fb:	e8 00 eb ff ff       	callq  400e00 <puts@plt>
  402300:	bf 4f 3b 40 00       	mov    $0x403b4f,%edi
  402305:	e8 f6 ea ff ff       	callq  400e00 <puts@plt>
  40230a:	be 00 00 00 00       	mov    $0x0,%esi
  40230f:	bf 00 00 00 00       	mov    $0x0,%edi
  402314:	e8 91 fc ff ff       	callq  401faa <notify_server>
  402319:	bf 01 00 00 00       	mov    $0x1,%edi
  40231e:	e8 7d ec ff ff       	callq  400fa0 <exit@plt>

0000000000402323 <illegalhandler>:
  402323:	48 83 ec 08          	sub    $0x8,%rsp
  402327:	83 3d 1a 32 20 00 00 	cmpl   $0x0,0x20321a(%rip)        # 605548 <is_checker>
  40232e:	74 14                	je     402344 <illegalhandler+0x21>
  402330:	bf 78 3b 40 00       	mov    $0x403b78,%edi
  402335:	e8 c6 ea ff ff       	callq  400e00 <puts@plt>
  40233a:	b8 00 00 00 00       	mov    $0x0,%eax
  40233f:	e8 e4 fb ff ff       	callq  401f28 <check_fail>
  402344:	bf f8 3c 40 00       	mov    $0x403cf8,%edi
  402349:	e8 b2 ea ff ff       	callq  400e00 <puts@plt>
  40234e:	bf 4f 3b 40 00       	mov    $0x403b4f,%edi
  402353:	e8 a8 ea ff ff       	callq  400e00 <puts@plt>
  402358:	be 00 00 00 00       	mov    $0x0,%esi
  40235d:	bf 00 00 00 00       	mov    $0x0,%edi
  402362:	e8 43 fc ff ff       	callq  401faa <notify_server>
  402367:	bf 01 00 00 00       	mov    $0x1,%edi
  40236c:	e8 2f ec ff ff       	callq  400fa0 <exit@plt>

0000000000402371 <sigalrmhandler>:
  402371:	48 83 ec 08          	sub    $0x8,%rsp
  402375:	83 3d cc 31 20 00 00 	cmpl   $0x0,0x2031cc(%rip)        # 605548 <is_checker>
  40237c:	74 14                	je     402392 <sigalrmhandler+0x21>
  40237e:	bf 8c 3b 40 00       	mov    $0x403b8c,%edi
  402383:	e8 78 ea ff ff       	callq  400e00 <puts@plt>
  402388:	b8 00 00 00 00       	mov    $0x0,%eax
  40238d:	e8 96 fb ff ff       	callq  401f28 <check_fail>
  402392:	ba 05 00 00 00       	mov    $0x5,%edx
  402397:	be 28 3d 40 00       	mov    $0x403d28,%esi
  40239c:	bf 01 00 00 00       	mov    $0x1,%edi
  4023a1:	b8 00 00 00 00       	mov    $0x0,%eax
  4023a6:	e8 a5 eb ff ff       	callq  400f50 <__printf_chk@plt>
  4023ab:	be 00 00 00 00       	mov    $0x0,%esi
  4023b0:	bf 00 00 00 00       	mov    $0x0,%edi
  4023b5:	e8 f0 fb ff ff       	callq  401faa <notify_server>
  4023ba:	bf 01 00 00 00       	mov    $0x1,%edi
  4023bf:	e8 dc eb ff ff       	callq  400fa0 <exit@plt>

00000000004023c4 <launch>:
  4023c4:	55                   	push   %rbp
  4023c5:	48 89 e5             	mov    %rsp,%rbp
  4023c8:	48 83 ec 10          	sub    $0x10,%rsp
  4023cc:	48 89 fa             	mov    %rdi,%rdx
  4023cf:	64 48 8b 04 25 28 00 	mov    %fs:0x28,%rax
  4023d6:	00 00 
  4023d8:	48 89 45 f8          	mov    %rax,-0x8(%rbp)
  4023dc:	31 c0                	xor    %eax,%eax
  4023de:	48 8d 47 1e          	lea    0x1e(%rdi),%rax
  4023e2:	48 83 e0 f0          	and    $0xfffffffffffffff0,%rax
  4023e6:	48 29 c4             	sub    %rax,%rsp
  4023e9:	48 8d 7c 24 0f       	lea    0xf(%rsp),%rdi
  4023ee:	48 83 e7 f0          	and    $0xfffffffffffffff0,%rdi
  4023f2:	be f4 00 00 00       	mov    $0xf4,%esi
  4023f7:	e8 44 ea ff ff       	callq  400e40 <memset@plt>
  4023fc:	48 8b 05 ed 30 20 00 	mov    0x2030ed(%rip),%rax        # 6054f0 <stdin@@GLIBC_2.2.5>
  402403:	48 39 05 26 31 20 00 	cmp    %rax,0x203126(%rip)        # 605530 <infile>
  40240a:	75 14                	jne    402420 <launch+0x5c>
  40240c:	be 94 3b 40 00       	mov    $0x403b94,%esi
  402411:	bf 01 00 00 00       	mov    $0x1,%edi
  402416:	b8 00 00 00 00       	mov    $0x0,%eax
  40241b:	e8 30 eb ff ff       	callq  400f50 <__printf_chk@plt>
  402420:	c7 05 12 31 20 00 00 	movl   $0x0,0x203112(%rip)        # 60553c <vlevel>
  402427:	00 00 00 
  40242a:	b8 00 00 00 00       	mov    $0x0,%eax
  40242f:	e8 b3 f9 ff ff       	callq  401de7 <test>
  402434:	83 3d 0d 31 20 00 00 	cmpl   $0x0,0x20310d(%rip)        # 605548 <is_checker>
  40243b:	74 14                	je     402451 <launch+0x8d>
  40243d:	bf a1 3b 40 00       	mov    $0x403ba1,%edi
  402442:	e8 b9 e9 ff ff       	callq  400e00 <puts@plt>
  402447:	b8 00 00 00 00       	mov    $0x0,%eax
  40244c:	e8 d7 fa ff ff       	callq  401f28 <check_fail>
  402451:	bf ac 3b 40 00       	mov    $0x403bac,%edi
  402456:	e8 a5 e9 ff ff       	callq  400e00 <puts@plt>
  40245b:	48 8b 45 f8          	mov    -0x8(%rbp),%rax
  40245f:	64 48 33 04 25 28 00 	xor    %fs:0x28,%rax
  402466:	00 00 
  402468:	74 05                	je     40246f <launch+0xab>
  40246a:	e8 b1 e9 ff ff       	callq  400e20 <__stack_chk_fail@plt>
  40246f:	c9                   	leaveq 
  402470:	c3                   	retq   

0000000000402471 <stable_launch>:
  402471:	53                   	push   %rbx
  402472:	48 89 3d af 30 20 00 	mov    %rdi,0x2030af(%rip)        # 605528 <global_offset>
  402479:	41 b9 00 00 00 00    	mov    $0x0,%r9d
  40247f:	41 b8 00 00 00 00    	mov    $0x0,%r8d
  402485:	b9 32 01 00 00       	mov    $0x132,%ecx
  40248a:	ba 07 00 00 00       	mov    $0x7,%edx
  40248f:	be 00 00 10 00       	mov    $0x100000,%esi
  402494:	bf 00 60 58 55       	mov    $0x55586000,%edi
  402499:	e8 92 e9 ff ff       	callq  400e30 <mmap@plt>
  40249e:	48 89 c3             	mov    %rax,%rbx
  4024a1:	48 3d 00 60 58 55    	cmp    $0x55586000,%rax
  4024a7:	74 37                	je     4024e0 <stable_launch+0x6f>
  4024a9:	be 00 00 10 00       	mov    $0x100000,%esi
  4024ae:	48 89 c7             	mov    %rax,%rdi
  4024b1:	e8 8a ea ff ff       	callq  400f40 <munmap@plt>
  4024b6:	b9 00 60 58 55       	mov    $0x55586000,%ecx
  4024bb:	ba 60 3d 40 00       	mov    $0x403d60,%edx
  4024c0:	be 01 00 00 00       	mov    $0x1,%esi
  4024c5:	48 8b 3d 34 30 20 00 	mov    0x203034(%rip),%rdi        # 605500 <stderr@@GLIBC_2.2.5>
  4024cc:	b8 00 00 00 00       	mov    $0x0,%eax
  4024d1:	e8 ea ea ff ff       	callq  400fc0 <__fprintf_chk@plt>
  4024d6:	bf 01 00 00 00       	mov    $0x1,%edi
  4024db:	e8 c0 ea ff ff       	callq  400fa0 <exit@plt>
  4024e0:	48 8d 90 f8 ff 0f 00 	lea    0xffff8(%rax),%rdx
  4024e7:	48 89 15 82 3c 20 00 	mov    %rdx,0x203c82(%rip)        # 606170 <stack_top>
  4024ee:	48 89 e0             	mov    %rsp,%rax
  4024f1:	48 89 d4             	mov    %rdx,%rsp
  4024f4:	48 89 c2             	mov    %rax,%rdx
  4024f7:	48 89 15 22 30 20 00 	mov    %rdx,0x203022(%rip)        # 605520 <global_save_stack>
  4024fe:	48 8b 3d 23 30 20 00 	mov    0x203023(%rip),%rdi        # 605528 <global_offset>
  402505:	e8 ba fe ff ff       	callq  4023c4 <launch>
  40250a:	48 8b 05 0f 30 20 00 	mov    0x20300f(%rip),%rax        # 605520 <global_save_stack>
  402511:	48 89 c4             	mov    %rax,%rsp
  402514:	be 00 00 10 00       	mov    $0x100000,%esi
  402519:	48 89 df             	mov    %rbx,%rdi
  40251c:	e8 1f ea ff ff       	callq  400f40 <munmap@plt>
  402521:	5b                   	pop    %rbx
  402522:	c3                   	retq   

0000000000402523 <rio_readinitb>:
  402523:	89 37                	mov    %esi,(%rdi)
  402525:	c7 47 04 00 00 00 00 	movl   $0x0,0x4(%rdi)
  40252c:	48 8d 47 10          	lea    0x10(%rdi),%rax
  402530:	48 89 47 08          	mov    %rax,0x8(%rdi)
  402534:	c3                   	retq   

0000000000402535 <sigalrm_handler>:
  402535:	48 83 ec 08          	sub    $0x8,%rsp
  402539:	b9 00 00 00 00       	mov    $0x0,%ecx
  40253e:	ba a0 3d 40 00       	mov    $0x403da0,%edx
  402543:	be 01 00 00 00       	mov    $0x1,%esi
  402548:	48 8b 3d b1 2f 20 00 	mov    0x202fb1(%rip),%rdi        # 605500 <stderr@@GLIBC_2.2.5>
  40254f:	b8 00 00 00 00       	mov    $0x0,%eax
  402554:	e8 67 ea ff ff       	callq  400fc0 <__fprintf_chk@plt>
  402559:	bf 01 00 00 00       	mov    $0x1,%edi
  40255e:	e8 3d ea ff ff       	callq  400fa0 <exit@plt>

0000000000402563 <rio_writen>:
  402563:	41 55                	push   %r13
  402565:	41 54                	push   %r12
  402567:	55                   	push   %rbp
  402568:	53                   	push   %rbx
  402569:	48 83 ec 08          	sub    $0x8,%rsp
  40256d:	41 89 fc             	mov    %edi,%r12d
  402570:	48 89 f5             	mov    %rsi,%rbp
  402573:	49 89 d5             	mov    %rdx,%r13
  402576:	48 89 d3             	mov    %rdx,%rbx
  402579:	eb 28                	jmp    4025a3 <rio_writen+0x40>
  40257b:	48 89 da             	mov    %rbx,%rdx
  40257e:	48 89 ee             	mov    %rbp,%rsi
  402581:	44 89 e7             	mov    %r12d,%edi
  402584:	e8 87 e8 ff ff       	callq  400e10 <write@plt>
  402589:	48 85 c0             	test   %rax,%rax
  40258c:	7f 0f                	jg     40259d <rio_writen+0x3a>
  40258e:	e8 2d e8 ff ff       	callq  400dc0 <__errno_location@plt>
  402593:	83 38 04             	cmpl   $0x4,(%rax)
  402596:	75 15                	jne    4025ad <rio_writen+0x4a>
  402598:	b8 00 00 00 00       	mov    $0x0,%eax
  40259d:	48 29 c3             	sub    %rax,%rbx
  4025a0:	48 01 c5             	add    %rax,%rbp
  4025a3:	48 85 db             	test   %rbx,%rbx
  4025a6:	75 d3                	jne    40257b <rio_writen+0x18>
  4025a8:	4c 89 e8             	mov    %r13,%rax
  4025ab:	eb 07                	jmp    4025b4 <rio_writen+0x51>
  4025ad:	48 c7 c0 ff ff ff ff 	mov    $0xffffffffffffffff,%rax
  4025b4:	48 83 c4 08          	add    $0x8,%rsp
  4025b8:	5b                   	pop    %rbx
  4025b9:	5d                   	pop    %rbp
  4025ba:	41 5c                	pop    %r12
  4025bc:	41 5d                	pop    %r13
  4025be:	c3                   	retq   

00000000004025bf <rio_read>:
  4025bf:	41 55                	push   %r13
  4025c1:	41 54                	push   %r12
  4025c3:	55                   	push   %rbp
  4025c4:	53                   	push   %rbx
  4025c5:	48 83 ec 08          	sub    $0x8,%rsp
  4025c9:	48 89 fb             	mov    %rdi,%rbx
  4025cc:	49 89 f5             	mov    %rsi,%r13
  4025cf:	49 89 d4             	mov    %rdx,%r12
  4025d2:	eb 2e                	jmp    402602 <rio_read+0x43>
  4025d4:	48 8d 6b 10          	lea    0x10(%rbx),%rbp
  4025d8:	8b 3b                	mov    (%rbx),%edi
  4025da:	ba 00 20 00 00       	mov    $0x2000,%edx
  4025df:	48 89 ee             	mov    %rbp,%rsi
  4025e2:	e8 89 e8 ff ff       	callq  400e70 <read@plt>
  4025e7:	89 43 04             	mov    %eax,0x4(%rbx)
  4025ea:	85 c0                	test   %eax,%eax
  4025ec:	79 0c                	jns    4025fa <rio_read+0x3b>
  4025ee:	e8 cd e7 ff ff       	callq  400dc0 <__errno_location@plt>
  4025f3:	83 38 04             	cmpl   $0x4,(%rax)
  4025f6:	74 0a                	je     402602 <rio_read+0x43>
  4025f8:	eb 37                	jmp    402631 <rio_read+0x72>
  4025fa:	85 c0                	test   %eax,%eax
  4025fc:	74 3c                	je     40263a <rio_read+0x7b>
  4025fe:	48 89 6b 08          	mov    %rbp,0x8(%rbx)
  402602:	8b 6b 04             	mov    0x4(%rbx),%ebp
  402605:	85 ed                	test   %ebp,%ebp
  402607:	7e cb                	jle    4025d4 <rio_read+0x15>
  402609:	89 e8                	mov    %ebp,%eax
  40260b:	49 39 c4             	cmp    %rax,%r12
  40260e:	77 03                	ja     402613 <rio_read+0x54>
  402610:	44 89 e5             	mov    %r12d,%ebp
  402613:	4c 63 e5             	movslq %ebp,%r12
  402616:	48 8b 73 08          	mov    0x8(%rbx),%rsi
  40261a:	4c 89 e2             	mov    %r12,%rdx
  40261d:	4c 89 ef             	mov    %r13,%rdi
  402620:	e8 bb e8 ff ff       	callq  400ee0 <memcpy@plt>
  402625:	4c 01 63 08          	add    %r12,0x8(%rbx)
  402629:	29 6b 04             	sub    %ebp,0x4(%rbx)
  40262c:	4c 89 e0             	mov    %r12,%rax
  40262f:	eb 0e                	jmp    40263f <rio_read+0x80>
  402631:	48 c7 c0 ff ff ff ff 	mov    $0xffffffffffffffff,%rax
  402638:	eb 05                	jmp    40263f <rio_read+0x80>
  40263a:	b8 00 00 00 00       	mov    $0x0,%eax
  40263f:	48 83 c4 08          	add    $0x8,%rsp
  402643:	5b                   	pop    %rbx
  402644:	5d                   	pop    %rbp
  402645:	41 5c                	pop    %r12
  402647:	41 5d                	pop    %r13
  402649:	c3                   	retq   

000000000040264a <rio_readlineb>:
  40264a:	41 55                	push   %r13
  40264c:	41 54                	push   %r12
  40264e:	55                   	push   %rbp
  40264f:	53                   	push   %rbx
  402650:	48 83 ec 18          	sub    $0x18,%rsp
  402654:	49 89 fd             	mov    %rdi,%r13
  402657:	48 89 f5             	mov    %rsi,%rbp
  40265a:	49 89 d4             	mov    %rdx,%r12
  40265d:	64 48 8b 04 25 28 00 	mov    %fs:0x28,%rax
  402664:	00 00 
  402666:	48 89 44 24 08       	mov    %rax,0x8(%rsp)
  40266b:	31 c0                	xor    %eax,%eax
  40266d:	bb 01 00 00 00       	mov    $0x1,%ebx
  402672:	eb 3f                	jmp    4026b3 <rio_readlineb+0x69>
  402674:	ba 01 00 00 00       	mov    $0x1,%edx
  402679:	48 8d 74 24 07       	lea    0x7(%rsp),%rsi
  40267e:	4c 89 ef             	mov    %r13,%rdi
  402681:	e8 39 ff ff ff       	callq  4025bf <rio_read>
  402686:	83 f8 01             	cmp    $0x1,%eax
  402689:	75 15                	jne    4026a0 <rio_readlineb+0x56>
  40268b:	48 8d 45 01          	lea    0x1(%rbp),%rax
  40268f:	0f b6 54 24 07       	movzbl 0x7(%rsp),%edx
  402694:	88 55 00             	mov    %dl,0x0(%rbp)
  402697:	80 7c 24 07 0a       	cmpb   $0xa,0x7(%rsp)
  40269c:	75 0e                	jne    4026ac <rio_readlineb+0x62>
  40269e:	eb 1a                	jmp    4026ba <rio_readlineb+0x70>
  4026a0:	85 c0                	test   %eax,%eax
  4026a2:	75 22                	jne    4026c6 <rio_readlineb+0x7c>
  4026a4:	48 83 fb 01          	cmp    $0x1,%rbx
  4026a8:	75 13                	jne    4026bd <rio_readlineb+0x73>
  4026aa:	eb 23                	jmp    4026cf <rio_readlineb+0x85>
  4026ac:	48 83 c3 01          	add    $0x1,%rbx
  4026b0:	48 89 c5             	mov    %rax,%rbp
  4026b3:	4c 39 e3             	cmp    %r12,%rbx
  4026b6:	72 bc                	jb     402674 <rio_readlineb+0x2a>
  4026b8:	eb 03                	jmp    4026bd <rio_readlineb+0x73>
  4026ba:	48 89 c5             	mov    %rax,%rbp
  4026bd:	c6 45 00 00          	movb   $0x0,0x0(%rbp)
  4026c1:	48 89 d8             	mov    %rbx,%rax
  4026c4:	eb 0e                	jmp    4026d4 <rio_readlineb+0x8a>
  4026c6:	48 c7 c0 ff ff ff ff 	mov    $0xffffffffffffffff,%rax
  4026cd:	eb 05                	jmp    4026d4 <rio_readlineb+0x8a>
  4026cf:	b8 00 00 00 00       	mov    $0x0,%eax
  4026d4:	48 8b 4c 24 08       	mov    0x8(%rsp),%rcx
  4026d9:	64 48 33 0c 25 28 00 	xor    %fs:0x28,%rcx
  4026e0:	00 00 
  4026e2:	74 05                	je     4026e9 <rio_readlineb+0x9f>
  4026e4:	e8 37 e7 ff ff       	callq  400e20 <__stack_chk_fail@plt>
  4026e9:	48 83 c4 18          	add    $0x18,%rsp
  4026ed:	5b                   	pop    %rbx
  4026ee:	5d                   	pop    %rbp
  4026ef:	41 5c                	pop    %r12
  4026f1:	41 5d                	pop    %r13
  4026f3:	c3                   	retq   

00000000004026f4 <urlencode>:
  4026f4:	41 54                	push   %r12
  4026f6:	55                   	push   %rbp
  4026f7:	53                   	push   %rbx
  4026f8:	48 83 ec 10          	sub    $0x10,%rsp
  4026fc:	48 89 fb             	mov    %rdi,%rbx
  4026ff:	48 89 f5             	mov    %rsi,%rbp
  402702:	64 48 8b 04 25 28 00 	mov    %fs:0x28,%rax
  402709:	00 00 
  40270b:	48 89 44 24 08       	mov    %rax,0x8(%rsp)
  402710:	31 c0                	xor    %eax,%eax
  402712:	48 c7 c1 ff ff ff ff 	mov    $0xffffffffffffffff,%rcx
  402719:	f2 ae                	repnz scas %es:(%rdi),%al
  40271b:	48 f7 d1             	not    %rcx
  40271e:	8d 41 ff             	lea    -0x1(%rcx),%eax
  402721:	e9 aa 00 00 00       	jmpq   4027d0 <urlencode+0xdc>
  402726:	44 0f b6 03          	movzbl (%rbx),%r8d
  40272a:	41 80 f8 2a          	cmp    $0x2a,%r8b
  40272e:	0f 94 c2             	sete   %dl
  402731:	41 80 f8 2d          	cmp    $0x2d,%r8b
  402735:	0f 94 c0             	sete   %al
  402738:	08 c2                	or     %al,%dl
  40273a:	75 24                	jne    402760 <urlencode+0x6c>
  40273c:	41 80 f8 2e          	cmp    $0x2e,%r8b
  402740:	74 1e                	je     402760 <urlencode+0x6c>
  402742:	41 80 f8 5f          	cmp    $0x5f,%r8b
  402746:	74 18                	je     402760 <urlencode+0x6c>
  402748:	41 8d 40 d0          	lea    -0x30(%r8),%eax
  40274c:	3c 09                	cmp    $0x9,%al
  40274e:	76 10                	jbe    402760 <urlencode+0x6c>
  402750:	41 8d 40 bf          	lea    -0x41(%r8),%eax
  402754:	3c 19                	cmp    $0x19,%al
  402756:	76 08                	jbe    402760 <urlencode+0x6c>
  402758:	41 8d 40 9f          	lea    -0x61(%r8),%eax
  40275c:	3c 19                	cmp    $0x19,%al
  40275e:	77 0a                	ja     40276a <urlencode+0x76>
  402760:	44 88 45 00          	mov    %r8b,0x0(%rbp)
  402764:	48 8d 6d 01          	lea    0x1(%rbp),%rbp
  402768:	eb 5f                	jmp    4027c9 <urlencode+0xd5>
  40276a:	41 80 f8 20          	cmp    $0x20,%r8b
  40276e:	75 0a                	jne    40277a <urlencode+0x86>
  402770:	c6 45 00 2b          	movb   $0x2b,0x0(%rbp)
  402774:	48 8d 6d 01          	lea    0x1(%rbp),%rbp
  402778:	eb 4f                	jmp    4027c9 <urlencode+0xd5>
  40277a:	41 8d 40 e0          	lea    -0x20(%r8),%eax
  40277e:	3c 5f                	cmp    $0x5f,%al
  402780:	0f 96 c2             	setbe  %dl
  402783:	41 80 f8 09          	cmp    $0x9,%r8b
  402787:	0f 94 c0             	sete   %al
  40278a:	08 c2                	or     %al,%dl
  40278c:	74 50                	je     4027de <urlencode+0xea>
  40278e:	45 0f b6 c0          	movzbl %r8b,%r8d
  402792:	b9 38 3e 40 00       	mov    $0x403e38,%ecx
  402797:	ba 08 00 00 00       	mov    $0x8,%edx
  40279c:	be 01 00 00 00       	mov    $0x1,%esi
  4027a1:	48 89 e7             	mov    %rsp,%rdi
  4027a4:	b8 00 00 00 00       	mov    $0x0,%eax
  4027a9:	e8 32 e8 ff ff       	callq  400fe0 <__sprintf_chk@plt>
  4027ae:	0f b6 04 24          	movzbl (%rsp),%eax
  4027b2:	88 45 00             	mov    %al,0x0(%rbp)
  4027b5:	0f b6 44 24 01       	movzbl 0x1(%rsp),%eax
  4027ba:	88 45 01             	mov    %al,0x1(%rbp)
  4027bd:	0f b6 44 24 02       	movzbl 0x2(%rsp),%eax
  4027c2:	88 45 02             	mov    %al,0x2(%rbp)
  4027c5:	48 8d 6d 03          	lea    0x3(%rbp),%rbp
  4027c9:	48 83 c3 01          	add    $0x1,%rbx
  4027cd:	44 89 e0             	mov    %r12d,%eax
  4027d0:	44 8d 60 ff          	lea    -0x1(%rax),%r12d
  4027d4:	85 c0                	test   %eax,%eax
  4027d6:	0f 85 4a ff ff ff    	jne    402726 <urlencode+0x32>
  4027dc:	eb 05                	jmp    4027e3 <urlencode+0xef>
  4027de:	b8 ff ff ff ff       	mov    $0xffffffff,%eax
  4027e3:	48 8b 74 24 08       	mov    0x8(%rsp),%rsi
  4027e8:	64 48 33 34 25 28 00 	xor    %fs:0x28,%rsi
  4027ef:	00 00 
  4027f1:	74 05                	je     4027f8 <urlencode+0x104>
  4027f3:	e8 28 e6 ff ff       	callq  400e20 <__stack_chk_fail@plt>
  4027f8:	48 83 c4 10          	add    $0x10,%rsp
  4027fc:	5b                   	pop    %rbx
  4027fd:	5d                   	pop    %rbp
  4027fe:	41 5c                	pop    %r12
  402800:	c3                   	retq   

0000000000402801 <submitr>:
  402801:	41 57                	push   %r15
  402803:	41 56                	push   %r14
  402805:	41 55                	push   %r13
  402807:	41 54                	push   %r12
  402809:	55                   	push   %rbp
  40280a:	53                   	push   %rbx
  40280b:	48 81 ec 58 a0 00 00 	sub    $0xa058,%rsp
  402812:	49 89 fc             	mov    %rdi,%r12
  402815:	89 74 24 04          	mov    %esi,0x4(%rsp)
  402819:	49 89 d7             	mov    %rdx,%r15
  40281c:	49 89 ce             	mov    %rcx,%r14
  40281f:	4c 89 44 24 08       	mov    %r8,0x8(%rsp)
  402824:	4d 89 cd             	mov    %r9,%r13
  402827:	48 8b 9c 24 90 a0 00 	mov    0xa090(%rsp),%rbx
  40282e:	00 
  40282f:	64 48 8b 04 25 28 00 	mov    %fs:0x28,%rax
  402836:	00 00 
  402838:	48 89 84 24 48 a0 00 	mov    %rax,0xa048(%rsp)
  40283f:	00 
  402840:	31 c0                	xor    %eax,%eax
  402842:	c7 44 24 1c 00 00 00 	movl   $0x0,0x1c(%rsp)
  402849:	00 
  40284a:	ba 00 00 00 00       	mov    $0x0,%edx
  40284f:	be 01 00 00 00       	mov    $0x1,%esi
  402854:	bf 02 00 00 00       	mov    $0x2,%edi
  402859:	e8 92 e7 ff ff       	callq  400ff0 <socket@plt>
  40285e:	85 c0                	test   %eax,%eax
  402860:	79 4e                	jns    4028b0 <submitr+0xaf>
  402862:	48 b8 45 72 72 6f 72 	movabs $0x43203a726f727245,%rax
  402869:	3a 20 43 
  40286c:	48 89 03             	mov    %rax,(%rbx)
  40286f:	48 b8 6c 69 65 6e 74 	movabs $0x6e7520746e65696c,%rax
  402876:	20 75 6e 
  402879:	48 89 43 08          	mov    %rax,0x8(%rbx)
  40287d:	48 b8 61 62 6c 65 20 	movabs $0x206f7420656c6261,%rax
  402884:	74 6f 20 
  402887:	48 89 43 10          	mov    %rax,0x10(%rbx)
  40288b:	48 b8 63 72 65 61 74 	movabs $0x7320657461657263,%rax
  402892:	65 20 73 
  402895:	48 89 43 18          	mov    %rax,0x18(%rbx)
  402899:	c7 43 20 6f 63 6b 65 	movl   $0x656b636f,0x20(%rbx)
  4028a0:	66 c7 43 24 74 00    	movw   $0x74,0x24(%rbx)
  4028a6:	b8 ff ff ff ff       	mov    $0xffffffff,%eax
  4028ab:	e9 97 06 00 00       	jmpq   402f47 <submitr+0x746>
  4028b0:	89 c5                	mov    %eax,%ebp
  4028b2:	4c 89 e7             	mov    %r12,%rdi
  4028b5:	e8 f6 e5 ff ff       	callq  400eb0 <gethostbyname@plt>
  4028ba:	48 85 c0             	test   %rax,%rax
  4028bd:	75 67                	jne    402926 <submitr+0x125>
  4028bf:	48 b8 45 72 72 6f 72 	movabs $0x44203a726f727245,%rax
  4028c6:	3a 20 44 
  4028c9:	48 89 03             	mov    %rax,(%rbx)
  4028cc:	48 b8 4e 53 20 69 73 	movabs $0x6e7520736920534e,%rax
  4028d3:	20 75 6e 
  4028d6:	48 89 43 08          	mov    %rax,0x8(%rbx)
  4028da:	48 b8 61 62 6c 65 20 	movabs $0x206f7420656c6261,%rax
  4028e1:	74 6f 20 
  4028e4:	48 89 43 10          	mov    %rax,0x10(%rbx)
  4028e8:	48 b8 72 65 73 6f 6c 	movabs $0x2065766c6f736572,%rax
  4028ef:	76 65 20 
  4028f2:	48 89 43 18          	mov    %rax,0x18(%rbx)
  4028f6:	48 b8 73 65 72 76 65 	movabs $0x6120726576726573,%rax
  4028fd:	72 20 61 
  402900:	48 89 43 20          	mov    %rax,0x20(%rbx)
  402904:	c7 43 28 64 64 72 65 	movl   $0x65726464,0x28(%rbx)
  40290b:	66 c7 43 2c 73 73    	movw   $0x7373,0x2c(%rbx)
  402911:	c6 43 2e 00          	movb   $0x0,0x2e(%rbx)
  402915:	89 ef                	mov    %ebp,%edi
  402917:	e8 44 e5 ff ff       	callq  400e60 <close@plt>
  40291c:	b8 ff ff ff ff       	mov    $0xffffffff,%eax
  402921:	e9 21 06 00 00       	jmpq   402f47 <submitr+0x746>
  402926:	48 c7 44 24 20 00 00 	movq   $0x0,0x20(%rsp)
  40292d:	00 00 
  40292f:	48 c7 44 24 28 00 00 	movq   $0x0,0x28(%rsp)
  402936:	00 00 
  402938:	66 c7 44 24 20 02 00 	movw   $0x2,0x20(%rsp)
  40293f:	48 63 50 14          	movslq 0x14(%rax),%rdx
  402943:	48 8b 40 18          	mov    0x18(%rax),%rax
  402947:	48 8b 30             	mov    (%rax),%rsi
  40294a:	48 8d 7c 24 24       	lea    0x24(%rsp),%rdi
  40294f:	b9 0c 00 00 00       	mov    $0xc,%ecx
  402954:	e8 67 e5 ff ff       	callq  400ec0 <__memmove_chk@plt>
  402959:	0f b7 44 24 04       	movzwl 0x4(%rsp),%eax
  40295e:	66 c1 c8 08          	ror    $0x8,%ax
  402962:	66 89 44 24 22       	mov    %ax,0x22(%rsp)
  402967:	ba 10 00 00 00       	mov    $0x10,%edx
  40296c:	48 8d 74 24 20       	lea    0x20(%rsp),%rsi
  402971:	89 ef                	mov    %ebp,%edi
  402973:	e8 38 e6 ff ff       	callq  400fb0 <connect@plt>
  402978:	85 c0                	test   %eax,%eax
  40297a:	79 59                	jns    4029d5 <submitr+0x1d4>
  40297c:	48 b8 45 72 72 6f 72 	movabs $0x55203a726f727245,%rax
  402983:	3a 20 55 
  402986:	48 89 03             	mov    %rax,(%rbx)
  402989:	48 b8 6e 61 62 6c 65 	movabs $0x6f7420656c62616e,%rax
  402990:	20 74 6f 
  402993:	48 89 43 08          	mov    %rax,0x8(%rbx)
  402997:	48 b8 20 63 6f 6e 6e 	movabs $0x7463656e6e6f6320,%rax
  40299e:	65 63 74 
  4029a1:	48 89 43 10          	mov    %rax,0x10(%rbx)
  4029a5:	48 b8 20 74 6f 20 74 	movabs $0x20656874206f7420,%rax
  4029ac:	68 65 20 
  4029af:	48 89 43 18          	mov    %rax,0x18(%rbx)
  4029b3:	c7 43 20 73 65 72 76 	movl   $0x76726573,0x20(%rbx)
  4029ba:	66 c7 43 24 65 72    	movw   $0x7265,0x24(%rbx)
  4029c0:	c6 43 26 00          	movb   $0x0,0x26(%rbx)
  4029c4:	89 ef                	mov    %ebp,%edi
  4029c6:	e8 95 e4 ff ff       	callq  400e60 <close@plt>
  4029cb:	b8 ff ff ff ff       	mov    $0xffffffff,%eax
  4029d0:	e9 72 05 00 00       	jmpq   402f47 <submitr+0x746>
  4029d5:	48 c7 c6 ff ff ff ff 	mov    $0xffffffffffffffff,%rsi
  4029dc:	b8 00 00 00 00       	mov    $0x0,%eax
  4029e1:	48 89 f1             	mov    %rsi,%rcx
  4029e4:	4c 89 ef             	mov    %r13,%rdi
  4029e7:	f2 ae                	repnz scas %es:(%rdi),%al
  4029e9:	48 f7 d1             	not    %rcx
  4029ec:	48 89 ca             	mov    %rcx,%rdx
  4029ef:	48 89 f1             	mov    %rsi,%rcx
  4029f2:	4c 89 ff             	mov    %r15,%rdi
  4029f5:	f2 ae                	repnz scas %es:(%rdi),%al
  4029f7:	48 f7 d1             	not    %rcx
  4029fa:	49 89 c8             	mov    %rcx,%r8
  4029fd:	48 89 f1             	mov    %rsi,%rcx
  402a00:	4c 89 f7             	mov    %r14,%rdi
  402a03:	f2 ae                	repnz scas %es:(%rdi),%al
  402a05:	48 f7 d1             	not    %rcx
  402a08:	4d 8d 44 08 fe       	lea    -0x2(%r8,%rcx,1),%r8
  402a0d:	48 89 f1             	mov    %rsi,%rcx
  402a10:	48 8b 7c 24 08       	mov    0x8(%rsp),%rdi
  402a15:	f2 ae                	repnz scas %es:(%rdi),%al
  402a17:	48 89 c8             	mov    %rcx,%rax
  402a1a:	48 f7 d0             	not    %rax
  402a1d:	49 8d 4c 00 ff       	lea    -0x1(%r8,%rax,1),%rcx
  402a22:	48 8d 44 52 fd       	lea    -0x3(%rdx,%rdx,2),%rax
  402a27:	48 8d 84 01 80 00 00 	lea    0x80(%rcx,%rax,1),%rax
  402a2e:	00 
  402a2f:	48 3d 00 20 00 00    	cmp    $0x2000,%rax
  402a35:	76 72                	jbe    402aa9 <submitr+0x2a8>
  402a37:	48 b8 45 72 72 6f 72 	movabs $0x52203a726f727245,%rax
  402a3e:	3a 20 52 
  402a41:	48 89 03             	mov    %rax,(%rbx)
  402a44:	48 b8 65 73 75 6c 74 	movabs $0x747320746c757365,%rax
  402a4b:	20 73 74 
  402a4e:	48 89 43 08          	mov    %rax,0x8(%rbx)
  402a52:	48 b8 72 69 6e 67 20 	movabs $0x6f6f7420676e6972,%rax
  402a59:	74 6f 6f 
  402a5c:	48 89 43 10          	mov    %rax,0x10(%rbx)
  402a60:	48 b8 20 6c 61 72 67 	movabs $0x202e656772616c20,%rax
  402a67:	65 2e 20 
  402a6a:	48 89 43 18          	mov    %rax,0x18(%rbx)
  402a6e:	48 b8 49 6e 63 72 65 	movabs $0x6573616572636e49,%rax
  402a75:	61 73 65 
  402a78:	48 89 43 20          	mov    %rax,0x20(%rbx)
  402a7c:	48 b8 20 53 55 42 4d 	movabs $0x5254494d42555320,%rax
  402a83:	49 54 52 
  402a86:	48 89 43 28          	mov    %rax,0x28(%rbx)
  402a8a:	48 b8 5f 4d 41 58 42 	movabs $0x46554258414d5f,%rax
  402a91:	55 46 00 
  402a94:	48 89 43 30          	mov    %rax,0x30(%rbx)
  402a98:	89 ef                	mov    %ebp,%edi
  402a9a:	e8 c1 e3 ff ff       	callq  400e60 <close@plt>
  402a9f:	b8 ff ff ff ff       	mov    $0xffffffff,%eax
  402aa4:	e9 9e 04 00 00       	jmpq   402f47 <submitr+0x746>
  402aa9:	48 8d b4 24 40 40 00 	lea    0x4040(%rsp),%rsi
  402ab0:	00 
  402ab1:	b9 00 04 00 00       	mov    $0x400,%ecx
  402ab6:	b8 00 00 00 00       	mov    $0x0,%eax
  402abb:	48 89 f7             	mov    %rsi,%rdi
  402abe:	f3 48 ab             	rep stos %rax,%es:(%rdi)
  402ac1:	4c 89 ef             	mov    %r13,%rdi
  402ac4:	e8 2b fc ff ff       	callq  4026f4 <urlencode>
  402ac9:	85 c0                	test   %eax,%eax
  402acb:	0f 89 8a 00 00 00    	jns    402b5b <submitr+0x35a>
  402ad1:	48 b8 45 72 72 6f 72 	movabs $0x52203a726f727245,%rax
  402ad8:	3a 20 52 
  402adb:	48 89 03             	mov    %rax,(%rbx)
  402ade:	48 b8 65 73 75 6c 74 	movabs $0x747320746c757365,%rax
  402ae5:	20 73 74 
  402ae8:	48 89 43 08          	mov    %rax,0x8(%rbx)
  402aec:	48 b8 72 69 6e 67 20 	movabs $0x6e6f6320676e6972,%rax
  402af3:	63 6f 6e 
  402af6:	48 89 43 10          	mov    %rax,0x10(%rbx)
  402afa:	48 b8 74 61 69 6e 73 	movabs $0x6e6120736e696174,%rax
  402b01:	20 61 6e 
  402b04:	48 89 43 18          	mov    %rax,0x18(%rbx)
  402b08:	48 b8 20 69 6c 6c 65 	movabs $0x6c6167656c6c6920,%rax
  402b0f:	67 61 6c 
  402b12:	48 89 43 20          	mov    %rax,0x20(%rbx)
  402b16:	48 b8 20 6f 72 20 75 	movabs $0x72706e7520726f20,%rax
  402b1d:	6e 70 72 
  402b20:	48 89 43 28          	mov    %rax,0x28(%rbx)
  402b24:	48 b8 69 6e 74 61 62 	movabs $0x20656c6261746e69,%rax
  402b2b:	6c 65 20 
  402b2e:	48 89 43 30          	mov    %rax,0x30(%rbx)
  402b32:	48 b8 63 68 61 72 61 	movabs $0x6574636172616863,%rax
  402b39:	63 74 65 
  402b3c:	48 89 43 38          	mov    %rax,0x38(%rbx)
  402b40:	66 c7 43 40 72 2e    	movw   $0x2e72,0x40(%rbx)
  402b46:	c6 43 42 00          	movb   $0x0,0x42(%rbx)
  402b4a:	89 ef                	mov    %ebp,%edi
  402b4c:	e8 0f e3 ff ff       	callq  400e60 <close@plt>
  402b51:	b8 ff ff ff ff       	mov    $0xffffffff,%eax
  402b56:	e9 ec 03 00 00       	jmpq   402f47 <submitr+0x746>
  402b5b:	4c 8d ac 24 40 20 00 	lea    0x2040(%rsp),%r13
  402b62:	00 
  402b63:	41 54                	push   %r12
  402b65:	48 8d 84 24 48 40 00 	lea    0x4048(%rsp),%rax
  402b6c:	00 
  402b6d:	50                   	push   %rax
  402b6e:	4d 89 f9             	mov    %r15,%r9
  402b71:	4d 89 f0             	mov    %r14,%r8
  402b74:	b9 c8 3d 40 00       	mov    $0x403dc8,%ecx
  402b79:	ba 00 20 00 00       	mov    $0x2000,%edx
  402b7e:	be 01 00 00 00       	mov    $0x1,%esi
  402b83:	4c 89 ef             	mov    %r13,%rdi
  402b86:	b8 00 00 00 00       	mov    $0x0,%eax
  402b8b:	e8 50 e4 ff ff       	callq  400fe0 <__sprintf_chk@plt>
  402b90:	b8 00 00 00 00       	mov    $0x0,%eax
  402b95:	48 c7 c1 ff ff ff ff 	mov    $0xffffffffffffffff,%rcx
  402b9c:	4c 89 ef             	mov    %r13,%rdi
  402b9f:	f2 ae                	repnz scas %es:(%rdi),%al
  402ba1:	48 f7 d1             	not    %rcx
  402ba4:	48 8d 51 ff          	lea    -0x1(%rcx),%rdx
  402ba8:	4c 89 ee             	mov    %r13,%rsi
  402bab:	89 ef                	mov    %ebp,%edi
  402bad:	e8 b1 f9 ff ff       	callq  402563 <rio_writen>
  402bb2:	48 83 c4 10          	add    $0x10,%rsp
  402bb6:	48 85 c0             	test   %rax,%rax
  402bb9:	79 6e                	jns    402c29 <submitr+0x428>
  402bbb:	48 b8 45 72 72 6f 72 	movabs $0x43203a726f727245,%rax
  402bc2:	3a 20 43 
  402bc5:	48 89 03             	mov    %rax,(%rbx)
  402bc8:	48 b8 6c 69 65 6e 74 	movabs $0x6e7520746e65696c,%rax
  402bcf:	20 75 6e 
  402bd2:	48 89 43 08          	mov    %rax,0x8(%rbx)
  402bd6:	48 b8 61 62 6c 65 20 	movabs $0x206f7420656c6261,%rax
  402bdd:	74 6f 20 
  402be0:	48 89 43 10          	mov    %rax,0x10(%rbx)
  402be4:	48 b8 77 72 69 74 65 	movabs $0x6f74206574697277,%rax
  402beb:	20 74 6f 
  402bee:	48 89 43 18          	mov    %rax,0x18(%rbx)
  402bf2:	48 b8 20 74 68 65 20 	movabs $0x7365722065687420,%rax
  402bf9:	72 65 73 
  402bfc:	48 89 43 20          	mov    %rax,0x20(%rbx)
  402c00:	48 b8 75 6c 74 20 73 	movabs $0x7672657320746c75,%rax
  402c07:	65 72 76 
  402c0a:	48 89 43 28          	mov    %rax,0x28(%rbx)
  402c0e:	66 c7 43 30 65 72    	movw   $0x7265,0x30(%rbx)
  402c14:	c6 43 32 00          	movb   $0x0,0x32(%rbx)
  402c18:	89 ef                	mov    %ebp,%edi
  402c1a:	e8 41 e2 ff ff       	callq  400e60 <close@plt>
  402c1f:	b8 ff ff ff ff       	mov    $0xffffffff,%eax
  402c24:	e9 1e 03 00 00       	jmpq   402f47 <submitr+0x746>
  402c29:	89 ee                	mov    %ebp,%esi
  402c2b:	48 8d 7c 24 30       	lea    0x30(%rsp),%rdi
  402c30:	e8 ee f8 ff ff       	callq  402523 <rio_readinitb>
  402c35:	ba 00 20 00 00       	mov    $0x2000,%edx
  402c3a:	48 8d b4 24 40 20 00 	lea    0x2040(%rsp),%rsi
  402c41:	00 
  402c42:	48 8d 7c 24 30       	lea    0x30(%rsp),%rdi
  402c47:	e8 fe f9 ff ff       	callq  40264a <rio_readlineb>
  402c4c:	48 85 c0             	test   %rax,%rax
  402c4f:	7f 7d                	jg     402cce <submitr+0x4cd>
  402c51:	48 b8 45 72 72 6f 72 	movabs $0x43203a726f727245,%rax
  402c58:	3a 20 43 
  402c5b:	48 89 03             	mov    %rax,(%rbx)
  402c5e:	48 b8 6c 69 65 6e 74 	movabs $0x6e7520746e65696c,%rax
  402c65:	20 75 6e 
  402c68:	48 89 43 08          	mov    %rax,0x8(%rbx)
  402c6c:	48 b8 61 62 6c 65 20 	movabs $0x206f7420656c6261,%rax
  402c73:	74 6f 20 
  402c76:	48 89 43 10          	mov    %rax,0x10(%rbx)
  402c7a:	48 b8 72 65 61 64 20 	movabs $0x7269662064616572,%rax
  402c81:	66 69 72 
  402c84:	48 89 43 18          	mov    %rax,0x18(%rbx)
  402c88:	48 b8 73 74 20 68 65 	movabs $0x6564616568207473,%rax
  402c8f:	61 64 65 
  402c92:	48 89 43 20          	mov    %rax,0x20(%rbx)
  402c96:	48 b8 72 20 66 72 6f 	movabs $0x72206d6f72662072,%rax
  402c9d:	6d 20 72 
  402ca0:	48 89 43 28          	mov    %rax,0x28(%rbx)
  402ca4:	48 b8 65 73 75 6c 74 	movabs $0x657320746c757365,%rax
  402cab:	20 73 65 
  402cae:	48 89 43 30          	mov    %rax,0x30(%rbx)
  402cb2:	c7 43 38 72 76 65 72 	movl   $0x72657672,0x38(%rbx)
  402cb9:	c6 43 3c 00          	movb   $0x0,0x3c(%rbx)
  402cbd:	89 ef                	mov    %ebp,%edi
  402cbf:	e8 9c e1 ff ff       	callq  400e60 <close@plt>
  402cc4:	b8 ff ff ff ff       	mov    $0xffffffff,%eax
  402cc9:	e9 79 02 00 00       	jmpq   402f47 <submitr+0x746>
  402cce:	4c 8d 84 24 40 80 00 	lea    0x8040(%rsp),%r8
  402cd5:	00 
  402cd6:	48 8d 4c 24 1c       	lea    0x1c(%rsp),%rcx
  402cdb:	48 8d 94 24 40 60 00 	lea    0x6040(%rsp),%rdx
  402ce2:	00 
  402ce3:	be 3f 3e 40 00       	mov    $0x403e3f,%esi
  402ce8:	48 8d bc 24 40 20 00 	lea    0x2040(%rsp),%rdi
  402cef:	00 
  402cf0:	b8 00 00 00 00       	mov    $0x0,%eax
  402cf5:	e8 36 e2 ff ff       	callq  400f30 <__isoc99_sscanf@plt>
  402cfa:	e9 95 00 00 00       	jmpq   402d94 <submitr+0x593>
  402cff:	ba 00 20 00 00       	mov    $0x2000,%edx
  402d04:	48 8d b4 24 40 20 00 	lea    0x2040(%rsp),%rsi
  402d0b:	00 
  402d0c:	48 8d 7c 24 30       	lea    0x30(%rsp),%rdi
  402d11:	e8 34 f9 ff ff       	callq  40264a <rio_readlineb>
  402d16:	48 85 c0             	test   %rax,%rax
  402d19:	7f 79                	jg     402d94 <submitr+0x593>
  402d1b:	48 b8 45 72 72 6f 72 	movabs $0x43203a726f727245,%rax
  402d22:	3a 20 43 
  402d25:	48 89 03             	mov    %rax,(%rbx)
  402d28:	48 b8 6c 69 65 6e 74 	movabs $0x6e7520746e65696c,%rax
  402d2f:	20 75 6e 
  402d32:	48 89 43 08          	mov    %rax,0x8(%rbx)
  402d36:	48 b8 61 62 6c 65 20 	movabs $0x206f7420656c6261,%rax
  402d3d:	74 6f 20 
  402d40:	48 89 43 10          	mov    %rax,0x10(%rbx)
  402d44:	48 b8 72 65 61 64 20 	movabs $0x6165682064616572,%rax
  402d4b:	68 65 61 
  402d4e:	48 89 43 18          	mov    %rax,0x18(%rbx)
  402d52:	48 b8 64 65 72 73 20 	movabs $0x6f72662073726564,%rax
  402d59:	66 72 6f 
  402d5c:	48 89 43 20          	mov    %rax,0x20(%rbx)
  402d60:	48 b8 6d 20 74 68 65 	movabs $0x657220656874206d,%rax
  402d67:	20 72 65 
  402d6a:	48 89 43 28          	mov    %rax,0x28(%rbx)
  402d6e:	48 b8 73 75 6c 74 20 	movabs $0x72657320746c7573,%rax
  402d75:	73 65 72 
  402d78:	48 89 43 30          	mov    %rax,0x30(%rbx)
  402d7c:	c7 43 38 76 65 72 00 	movl   $0x726576,0x38(%rbx)
  402d83:	89 ef                	mov    %ebp,%edi
  402d85:	e8 d6 e0 ff ff       	callq  400e60 <close@plt>
  402d8a:	b8 ff ff ff ff       	mov    $0xffffffff,%eax
  402d8f:	e9 b3 01 00 00       	jmpq   402f47 <submitr+0x746>
  402d94:	0f b6 94 24 40 20 00 	movzbl 0x2040(%rsp),%edx
  402d9b:	00 
  402d9c:	b8 0d 00 00 00       	mov    $0xd,%eax
  402da1:	29 d0                	sub    %edx,%eax
  402da3:	75 1b                	jne    402dc0 <submitr+0x5bf>
  402da5:	0f b6 94 24 41 20 00 	movzbl 0x2041(%rsp),%edx
  402dac:	00 
  402dad:	b8 0a 00 00 00       	mov    $0xa,%eax
  402db2:	29 d0                	sub    %edx,%eax
  402db4:	75 0a                	jne    402dc0 <submitr+0x5bf>
  402db6:	0f b6 84 24 42 20 00 	movzbl 0x2042(%rsp),%eax
  402dbd:	00 
  402dbe:	f7 d8                	neg    %eax
  402dc0:	85 c0                	test   %eax,%eax
  402dc2:	0f 85 37 ff ff ff    	jne    402cff <submitr+0x4fe>
  402dc8:	ba 00 20 00 00       	mov    $0x2000,%edx
  402dcd:	48 8d b4 24 40 20 00 	lea    0x2040(%rsp),%rsi
  402dd4:	00 
  402dd5:	48 8d 7c 24 30       	lea    0x30(%rsp),%rdi
  402dda:	e8 6b f8 ff ff       	callq  40264a <rio_readlineb>
  402ddf:	48 85 c0             	test   %rax,%rax
  402de2:	0f 8f 83 00 00 00    	jg     402e6b <submitr+0x66a>
  402de8:	48 b8 45 72 72 6f 72 	movabs $0x43203a726f727245,%rax
  402def:	3a 20 43 
  402df2:	48 89 03             	mov    %rax,(%rbx)
  402df5:	48 b8 6c 69 65 6e 74 	movabs $0x6e7520746e65696c,%rax
  402dfc:	20 75 6e 
  402dff:	48 89 43 08          	mov    %rax,0x8(%rbx)
  402e03:	48 b8 61 62 6c 65 20 	movabs $0x206f7420656c6261,%rax
  402e0a:	74 6f 20 
  402e0d:	48 89 43 10          	mov    %rax,0x10(%rbx)
  402e11:	48 b8 72 65 61 64 20 	movabs $0x6174732064616572,%rax
  402e18:	73 74 61 
  402e1b:	48 89 43 18          	mov    %rax,0x18(%rbx)
  402e1f:	48 b8 74 75 73 20 6d 	movabs $0x7373656d20737574,%rax
  402e26:	65 73 73 
  402e29:	48 89 43 20          	mov    %rax,0x20(%rbx)
  402e2d:	48 b8 61 67 65 20 66 	movabs $0x6d6f726620656761,%rax
  402e34:	72 6f 6d 
  402e37:	48 89 43 28          	mov    %rax,0x28(%rbx)
  402e3b:	48 b8 20 72 65 73 75 	movabs $0x20746c7573657220,%rax
  402e42:	6c 74 20 
  402e45:	48 89 43 30          	mov    %rax,0x30(%rbx)
  402e49:	c7 43 38 73 65 72 76 	movl   $0x76726573,0x38(%rbx)
  402e50:	66 c7 43 3c 65 72    	movw   $0x7265,0x3c(%rbx)
  402e56:	c6 43 3e 00          	movb   $0x0,0x3e(%rbx)
  402e5a:	89 ef                	mov    %ebp,%edi
  402e5c:	e8 ff df ff ff       	callq  400e60 <close@plt>
  402e61:	b8 ff ff ff ff       	mov    $0xffffffff,%eax
  402e66:	e9 dc 00 00 00       	jmpq   402f47 <submitr+0x746>
  402e6b:	44 8b 44 24 1c       	mov    0x1c(%rsp),%r8d
  402e70:	41 81 f8 c8 00 00 00 	cmp    $0xc8,%r8d
  402e77:	74 37                	je     402eb0 <submitr+0x6af>
  402e79:	4c 8d 8c 24 40 80 00 	lea    0x8040(%rsp),%r9
  402e80:	00 
  402e81:	b9 08 3e 40 00       	mov    $0x403e08,%ecx
  402e86:	48 c7 c2 ff ff ff ff 	mov    $0xffffffffffffffff,%rdx
  402e8d:	be 01 00 00 00       	mov    $0x1,%esi
  402e92:	48 89 df             	mov    %rbx,%rdi
  402e95:	b8 00 00 00 00       	mov    $0x0,%eax
  402e9a:	e8 41 e1 ff ff       	callq  400fe0 <__sprintf_chk@plt>
  402e9f:	89 ef                	mov    %ebp,%edi
  402ea1:	e8 ba df ff ff       	callq  400e60 <close@plt>
  402ea6:	b8 ff ff ff ff       	mov    $0xffffffff,%eax
  402eab:	e9 97 00 00 00       	jmpq   402f47 <submitr+0x746>
  402eb0:	48 8d b4 24 40 20 00 	lea    0x2040(%rsp),%rsi
  402eb7:	00 
  402eb8:	48 89 df             	mov    %rbx,%rdi
  402ebb:	e8 30 df ff ff       	callq  400df0 <strcpy@plt>
  402ec0:	89 ef                	mov    %ebp,%edi
  402ec2:	e8 99 df ff ff       	callq  400e60 <close@plt>
  402ec7:	0f b6 03             	movzbl (%rbx),%eax
  402eca:	ba 4f 00 00 00       	mov    $0x4f,%edx
  402ecf:	29 c2                	sub    %eax,%edx
  402ed1:	75 22                	jne    402ef5 <submitr+0x6f4>
  402ed3:	0f b6 4b 01          	movzbl 0x1(%rbx),%ecx
  402ed7:	b8 4b 00 00 00       	mov    $0x4b,%eax
  402edc:	29 c8                	sub    %ecx,%eax
  402ede:	75 17                	jne    402ef7 <submitr+0x6f6>
  402ee0:	0f b6 4b 02          	movzbl 0x2(%rbx),%ecx
  402ee4:	b8 0a 00 00 00       	mov    $0xa,%eax
  402ee9:	29 c8                	sub    %ecx,%eax
  402eeb:	75 0a                	jne    402ef7 <submitr+0x6f6>
  402eed:	0f b6 43 03          	movzbl 0x3(%rbx),%eax
  402ef1:	f7 d8                	neg    %eax
  402ef3:	eb 02                	jmp    402ef7 <submitr+0x6f6>
  402ef5:	89 d0                	mov    %edx,%eax
  402ef7:	85 c0                	test   %eax,%eax
  402ef9:	74 40                	je     402f3b <submitr+0x73a>
  402efb:	bf 50 3e 40 00       	mov    $0x403e50,%edi
  402f00:	b9 05 00 00 00       	mov    $0x5,%ecx
  402f05:	48 89 de             	mov    %rbx,%rsi
  402f08:	f3 a6                	repz cmpsb %es:(%rdi),%ds:(%rsi)
  402f0a:	0f 97 c0             	seta   %al
  402f0d:	0f 92 c1             	setb   %cl
  402f10:	29 c8                	sub    %ecx,%eax
  402f12:	0f be c0             	movsbl %al,%eax
  402f15:	85 c0                	test   %eax,%eax
  402f17:	74 2e                	je     402f47 <submitr+0x746>
  402f19:	85 d2                	test   %edx,%edx
  402f1b:	75 13                	jne    402f30 <submitr+0x72f>
  402f1d:	0f b6 43 01          	movzbl 0x1(%rbx),%eax
  402f21:	ba 4b 00 00 00       	mov    $0x4b,%edx
  402f26:	29 c2                	sub    %eax,%edx
  402f28:	75 06                	jne    402f30 <submitr+0x72f>
  402f2a:	0f b6 53 02          	movzbl 0x2(%rbx),%edx
  402f2e:	f7 da                	neg    %edx
  402f30:	85 d2                	test   %edx,%edx
  402f32:	75 0e                	jne    402f42 <submitr+0x741>
  402f34:	b8 00 00 00 00       	mov    $0x0,%eax
  402f39:	eb 0c                	jmp    402f47 <submitr+0x746>
  402f3b:	b8 00 00 00 00       	mov    $0x0,%eax
  402f40:	eb 05                	jmp    402f47 <submitr+0x746>
  402f42:	b8 ff ff ff ff       	mov    $0xffffffff,%eax
  402f47:	48 8b 9c 24 48 a0 00 	mov    0xa048(%rsp),%rbx
  402f4e:	00 
  402f4f:	64 48 33 1c 25 28 00 	xor    %fs:0x28,%rbx
  402f56:	00 00 
  402f58:	74 05                	je     402f5f <submitr+0x75e>
  402f5a:	e8 c1 de ff ff       	callq  400e20 <__stack_chk_fail@plt>
  402f5f:	48 81 c4 58 a0 00 00 	add    $0xa058,%rsp
  402f66:	5b                   	pop    %rbx
  402f67:	5d                   	pop    %rbp
  402f68:	41 5c                	pop    %r12
  402f6a:	41 5d                	pop    %r13
  402f6c:	41 5e                	pop    %r14
  402f6e:	41 5f                	pop    %r15
  402f70:	c3                   	retq   

0000000000402f71 <init_timeout>:
  402f71:	85 ff                	test   %edi,%edi
  402f73:	74 23                	je     402f98 <init_timeout+0x27>
  402f75:	53                   	push   %rbx
  402f76:	89 fb                	mov    %edi,%ebx
  402f78:	85 ff                	test   %edi,%edi
  402f7a:	79 05                	jns    402f81 <init_timeout+0x10>
  402f7c:	bb 00 00 00 00       	mov    $0x0,%ebx
  402f81:	be 35 25 40 00       	mov    $0x402535,%esi
  402f86:	bf 0e 00 00 00       	mov    $0xe,%edi
  402f8b:	e8 10 df ff ff       	callq  400ea0 <signal@plt>
  402f90:	89 df                	mov    %ebx,%edi
  402f92:	e8 b9 de ff ff       	callq  400e50 <alarm@plt>
  402f97:	5b                   	pop    %rbx
  402f98:	f3 c3                	repz retq 

0000000000402f9a <init_driver>:
  402f9a:	55                   	push   %rbp
  402f9b:	53                   	push   %rbx
  402f9c:	48 83 ec 28          	sub    $0x28,%rsp
  402fa0:	48 89 fd             	mov    %rdi,%rbp
  402fa3:	64 48 8b 04 25 28 00 	mov    %fs:0x28,%rax
  402faa:	00 00 
  402fac:	48 89 44 24 18       	mov    %rax,0x18(%rsp)
  402fb1:	31 c0                	xor    %eax,%eax
  402fb3:	be 01 00 00 00       	mov    $0x1,%esi
  402fb8:	bf 0d 00 00 00       	mov    $0xd,%edi
  402fbd:	e8 de de ff ff       	callq  400ea0 <signal@plt>
  402fc2:	be 01 00 00 00       	mov    $0x1,%esi
  402fc7:	bf 1d 00 00 00       	mov    $0x1d,%edi
  402fcc:	e8 cf de ff ff       	callq  400ea0 <signal@plt>
  402fd1:	be 01 00 00 00       	mov    $0x1,%esi
  402fd6:	bf 1d 00 00 00       	mov    $0x1d,%edi
  402fdb:	e8 c0 de ff ff       	callq  400ea0 <signal@plt>
  402fe0:	ba 00 00 00 00       	mov    $0x0,%edx
  402fe5:	be 01 00 00 00       	mov    $0x1,%esi
  402fea:	bf 02 00 00 00       	mov    $0x2,%edi
  402fef:	e8 fc df ff ff       	callq  400ff0 <socket@plt>
  402ff4:	85 c0                	test   %eax,%eax
  402ff6:	79 4f                	jns    403047 <init_driver+0xad>
  402ff8:	48 b8 45 72 72 6f 72 	movabs $0x43203a726f727245,%rax
  402fff:	3a 20 43 
  403002:	48 89 45 00          	mov    %rax,0x0(%rbp)
  403006:	48 b8 6c 69 65 6e 74 	movabs $0x6e7520746e65696c,%rax
  40300d:	20 75 6e 
  403010:	48 89 45 08          	mov    %rax,0x8(%rbp)
  403014:	48 b8 61 62 6c 65 20 	movabs $0x206f7420656c6261,%rax
  40301b:	74 6f 20 
  40301e:	48 89 45 10          	mov    %rax,0x10(%rbp)
  403022:	48 b8 63 72 65 61 74 	movabs $0x7320657461657263,%rax
  403029:	65 20 73 
  40302c:	48 89 45 18          	mov    %rax,0x18(%rbp)
  403030:	c7 45 20 6f 63 6b 65 	movl   $0x656b636f,0x20(%rbp)
  403037:	66 c7 45 24 74 00    	movw   $0x74,0x24(%rbp)
  40303d:	b8 ff ff ff ff       	mov    $0xffffffff,%eax
  403042:	e9 2a 01 00 00       	jmpq   403171 <init_driver+0x1d7>
  403047:	89 c3                	mov    %eax,%ebx
  403049:	bf 55 3e 40 00       	mov    $0x403e55,%edi
  40304e:	e8 5d de ff ff       	callq  400eb0 <gethostbyname@plt>
  403053:	48 85 c0             	test   %rax,%rax
  403056:	75 68                	jne    4030c0 <init_driver+0x126>
  403058:	48 b8 45 72 72 6f 72 	movabs $0x44203a726f727245,%rax
  40305f:	3a 20 44 
  403062:	48 89 45 00          	mov    %rax,0x0(%rbp)
  403066:	48 b8 4e 53 20 69 73 	movabs $0x6e7520736920534e,%rax
  40306d:	20 75 6e 
  403070:	48 89 45 08          	mov    %rax,0x8(%rbp)
  403074:	48 b8 61 62 6c 65 20 	movabs $0x206f7420656c6261,%rax
  40307b:	74 6f 20 
  40307e:	48 89 45 10          	mov    %rax,0x10(%rbp)
  403082:	48 b8 72 65 73 6f 6c 	movabs $0x2065766c6f736572,%rax
  403089:	76 65 20 
  40308c:	48 89 45 18          	mov    %rax,0x18(%rbp)
  403090:	48 b8 73 65 72 76 65 	movabs $0x6120726576726573,%rax
  403097:	72 20 61 
  40309a:	48 89 45 20          	mov    %rax,0x20(%rbp)
  40309e:	c7 45 28 64 64 72 65 	movl   $0x65726464,0x28(%rbp)
  4030a5:	66 c7 45 2c 73 73    	movw   $0x7373,0x2c(%rbp)
  4030ab:	c6 45 2e 00          	movb   $0x0,0x2e(%rbp)
  4030af:	89 df                	mov    %ebx,%edi
  4030b1:	e8 aa dd ff ff       	callq  400e60 <close@plt>
  4030b6:	b8 ff ff ff ff       	mov    $0xffffffff,%eax
  4030bb:	e9 b1 00 00 00       	jmpq   403171 <init_driver+0x1d7>
  4030c0:	48 c7 04 24 00 00 00 	movq   $0x0,(%rsp)
  4030c7:	00 
  4030c8:	48 c7 44 24 08 00 00 	movq   $0x0,0x8(%rsp)
  4030cf:	00 00 
  4030d1:	66 c7 04 24 02 00    	movw   $0x2,(%rsp)
  4030d7:	48 63 50 14          	movslq 0x14(%rax),%rdx
  4030db:	48 8b 40 18          	mov    0x18(%rax),%rax
  4030df:	48 8b 30             	mov    (%rax),%rsi
  4030e2:	48 8d 7c 24 04       	lea    0x4(%rsp),%rdi
  4030e7:	b9 0c 00 00 00       	mov    $0xc,%ecx
  4030ec:	e8 cf dd ff ff       	callq  400ec0 <__memmove_chk@plt>
  4030f1:	66 c7 44 24 02 3b 6e 	movw   $0x6e3b,0x2(%rsp)
  4030f8:	ba 10 00 00 00       	mov    $0x10,%edx
  4030fd:	48 89 e6             	mov    %rsp,%rsi
  403100:	89 df                	mov    %ebx,%edi
  403102:	e8 a9 de ff ff       	callq  400fb0 <connect@plt>
  403107:	85 c0                	test   %eax,%eax
  403109:	79 50                	jns    40315b <init_driver+0x1c1>
  40310b:	48 b8 45 72 72 6f 72 	movabs $0x55203a726f727245,%rax
  403112:	3a 20 55 
  403115:	48 89 45 00          	mov    %rax,0x0(%rbp)
  403119:	48 b8 6e 61 62 6c 65 	movabs $0x6f7420656c62616e,%rax
  403120:	20 74 6f 
  403123:	48 89 45 08          	mov    %rax,0x8(%rbp)
  403127:	48 b8 20 63 6f 6e 6e 	movabs $0x7463656e6e6f6320,%rax
  40312e:	65 63 74 
  403131:	48 89 45 10          	mov    %rax,0x10(%rbp)
  403135:	48 b8 20 74 6f 20 73 	movabs $0x76726573206f7420,%rax
  40313c:	65 72 76 
  40313f:	48 89 45 18          	mov    %rax,0x18(%rbp)
  403143:	66 c7 45 20 65 72    	movw   $0x7265,0x20(%rbp)
  403149:	c6 45 22 00          	movb   $0x0,0x22(%rbp)
  40314d:	89 df                	mov    %ebx,%edi
  40314f:	e8 0c dd ff ff       	callq  400e60 <close@plt>
  403154:	b8 ff ff ff ff       	mov    $0xffffffff,%eax
  403159:	eb 16                	jmp    403171 <init_driver+0x1d7>
  40315b:	89 df                	mov    %ebx,%edi
  40315d:	e8 fe dc ff ff       	callq  400e60 <close@plt>
  403162:	66 c7 45 00 4f 4b    	movw   $0x4b4f,0x0(%rbp)
  403168:	c6 45 02 00          	movb   $0x0,0x2(%rbp)
  40316c:	b8 00 00 00 00       	mov    $0x0,%eax
  403171:	48 8b 4c 24 18       	mov    0x18(%rsp),%rcx
  403176:	64 48 33 0c 25 28 00 	xor    %fs:0x28,%rcx
  40317d:	00 00 
  40317f:	74 05                	je     403186 <init_driver+0x1ec>
  403181:	e8 9a dc ff ff       	callq  400e20 <__stack_chk_fail@plt>
  403186:	48 83 c4 28          	add    $0x28,%rsp
  40318a:	5b                   	pop    %rbx
  40318b:	5d                   	pop    %rbp
  40318c:	c3                   	retq   

000000000040318d <driver_post>:
  40318d:	53                   	push   %rbx
  40318e:	4c 89 cb             	mov    %r9,%rbx
  403191:	45 85 c0             	test   %r8d,%r8d
  403194:	74 27                	je     4031bd <driver_post+0x30>
  403196:	48 89 ca             	mov    %rcx,%rdx
  403199:	be 64 3e 40 00       	mov    $0x403e64,%esi
  40319e:	bf 01 00 00 00       	mov    $0x1,%edi
  4031a3:	b8 00 00 00 00       	mov    $0x0,%eax
  4031a8:	e8 a3 dd ff ff       	callq  400f50 <__printf_chk@plt>
  4031ad:	66 c7 03 4f 4b       	movw   $0x4b4f,(%rbx)
  4031b2:	c6 43 02 00          	movb   $0x0,0x2(%rbx)
  4031b6:	b8 00 00 00 00       	mov    $0x0,%eax
  4031bb:	eb 3f                	jmp    4031fc <driver_post+0x6f>
  4031bd:	48 85 ff             	test   %rdi,%rdi
  4031c0:	74 2c                	je     4031ee <driver_post+0x61>
  4031c2:	80 3f 00             	cmpb   $0x0,(%rdi)
  4031c5:	74 27                	je     4031ee <driver_post+0x61>
  4031c7:	48 83 ec 08          	sub    $0x8,%rsp
  4031cb:	41 51                	push   %r9
  4031cd:	49 89 c9             	mov    %rcx,%r9
  4031d0:	49 89 d0             	mov    %rdx,%r8
  4031d3:	48 89 f9             	mov    %rdi,%rcx
  4031d6:	48 89 f2             	mov    %rsi,%rdx
  4031d9:	be 6e 3b 00 00       	mov    $0x3b6e,%esi
  4031de:	bf 55 3e 40 00       	mov    $0x403e55,%edi
  4031e3:	e8 19 f6 ff ff       	callq  402801 <submitr>
  4031e8:	48 83 c4 10          	add    $0x10,%rsp
  4031ec:	eb 0e                	jmp    4031fc <driver_post+0x6f>
  4031ee:	66 c7 03 4f 4b       	movw   $0x4b4f,(%rbx)
  4031f3:	c6 43 02 00          	movb   $0x0,0x2(%rbx)
  4031f7:	b8 00 00 00 00       	mov    $0x0,%eax
  4031fc:	5b                   	pop    %rbx
  4031fd:	c3                   	retq   

00000000004031fe <check>:
  4031fe:	89 f8                	mov    %edi,%eax
  403200:	c1 e8 1c             	shr    $0x1c,%eax
  403203:	85 c0                	test   %eax,%eax
  403205:	74 1d                	je     403224 <check+0x26>
  403207:	b9 00 00 00 00       	mov    $0x0,%ecx
  40320c:	eb 0b                	jmp    403219 <check+0x1b>
  40320e:	89 f8                	mov    %edi,%eax
  403210:	d3 e8                	shr    %cl,%eax
  403212:	3c 0a                	cmp    $0xa,%al
  403214:	74 14                	je     40322a <check+0x2c>
  403216:	83 c1 08             	add    $0x8,%ecx
  403219:	83 f9 1f             	cmp    $0x1f,%ecx
  40321c:	7e f0                	jle    40320e <check+0x10>
  40321e:	b8 01 00 00 00       	mov    $0x1,%eax
  403223:	c3                   	retq   
  403224:	b8 00 00 00 00       	mov    $0x0,%eax
  403229:	c3                   	retq   
  40322a:	b8 00 00 00 00       	mov    $0x0,%eax
  40322f:	c3                   	retq   

0000000000403230 <gencookie>:
  403230:	53                   	push   %rbx
  403231:	83 c7 01             	add    $0x1,%edi
  403234:	e8 97 db ff ff       	callq  400dd0 <srandom@plt>
  403239:	e8 c2 dc ff ff       	callq  400f00 <random@plt>
  40323e:	89 c3                	mov    %eax,%ebx
  403240:	89 c7                	mov    %eax,%edi
  403242:	e8 b7 ff ff ff       	callq  4031fe <check>
  403247:	85 c0                	test   %eax,%eax
  403249:	74 ee                	je     403239 <gencookie+0x9>
  40324b:	89 d8                	mov    %ebx,%eax
  40324d:	5b                   	pop    %rbx
  40324e:	c3                   	retq   
  40324f:	90                   	nop

0000000000403250 <__libc_csu_init>:
  403250:	41 57                	push   %r15
  403252:	41 56                	push   %r14
  403254:	41 89 ff             	mov    %edi,%r15d
  403257:	41 55                	push   %r13
  403259:	41 54                	push   %r12
  40325b:	4c 8d 25 ae 1b 20 00 	lea    0x201bae(%rip),%r12        # 604e10 <__frame_dummy_init_array_entry>
  403262:	55                   	push   %rbp
  403263:	48 8d 2d ae 1b 20 00 	lea    0x201bae(%rip),%rbp        # 604e18 <__init_array_end>
  40326a:	53                   	push   %rbx
  40326b:	49 89 f6             	mov    %rsi,%r14
  40326e:	49 89 d5             	mov    %rdx,%r13
  403271:	4c 29 e5             	sub    %r12,%rbp
  403274:	48 83 ec 08          	sub    $0x8,%rsp
  403278:	48 c1 fd 03          	sar    $0x3,%rbp
  40327c:	e8 e7 da ff ff       	callq  400d68 <_init>
  403281:	48 85 ed             	test   %rbp,%rbp
  403284:	74 20                	je     4032a6 <__libc_csu_init+0x56>
  403286:	31 db                	xor    %ebx,%ebx
  403288:	0f 1f 84 00 00 00 00 	nopl   0x0(%rax,%rax,1)
  40328f:	00 
  403290:	4c 89 ea             	mov    %r13,%rdx
  403293:	4c 89 f6             	mov    %r14,%rsi
  403296:	44 89 ff             	mov    %r15d,%edi
  403299:	41 ff 14 dc          	callq  *(%r12,%rbx,8)
  40329d:	48 83 c3 01          	add    $0x1,%rbx
  4032a1:	48 39 eb             	cmp    %rbp,%rbx
  4032a4:	75 ea                	jne    403290 <__libc_csu_init+0x40>
  4032a6:	48 83 c4 08          	add    $0x8,%rsp
  4032aa:	5b                   	pop    %rbx
  4032ab:	5d                   	pop    %rbp
  4032ac:	41 5c                	pop    %r12
  4032ae:	41 5d                	pop    %r13
  4032b0:	41 5e                	pop    %r14
  4032b2:	41 5f                	pop    %r15
  4032b4:	c3                   	retq   
  4032b5:	90                   	nop
  4032b6:	66 2e 0f 1f 84 00 00 	nopw   %cs:0x0(%rax,%rax,1)
  4032bd:	00 00 00 

00000000004032c0 <__libc_csu_fini>:
  4032c0:	f3 c3                	repz retq 

Disassembly of section .fini:

00000000004032c4 <_fini>:
  4032c4:	48 83 ec 08          	sub    $0x8,%rsp
  4032c8:	48 83 c4 08          	add    $0x8,%rsp
  4032cc:	c3                   	retq   
